; Listing generated by Microsoft (R) Optimizing Compiler Version 19.10.25019.0 

	TITLE	C:\Users\barronry\Desktop\CS_third_year\third_year\CS3021 Computer Architecture II\Labs\Tutorial 1\t1Test\t1Test\t1Test.cpp
	.686P
	.XMM
	include listing.inc
	.model	flat

INCLUDELIB MSVCRTD
INCLUDELIB OLDNAMES

PUBLIC	?__empty_global_delete@@YAXPAX@Z		; __empty_global_delete
PUBLIC	?__empty_global_delete@@YAXPAXI@Z		; __empty_global_delete
PUBLIC	?length@?$char_traits@D@std@@SAIQBD@Z		; std::char_traits<char>::length
PUBLIC	?eq_int_type@?$char_traits@D@std@@SA_NABH0@Z	; std::char_traits<char>::eq_int_type
PUBLIC	?eof@?$char_traits@D@std@@SAHXZ			; std::char_traits<char>::eof
PUBLIC	?fib@@YAHH@Z					; fib
PUBLIC	?fib_IA32@@YAHH@Z				; fib_IA32
PUBLIC	?check@@YAXPADHH@Z				; check
PUBLIC	??$?6U?$char_traits@D@std@@@std@@YAAAV?$basic_ostream@DU?$char_traits@D@std@@@0@AAV10@PBD@Z ; std::operator<<<std::char_traits<char> >
PUBLIC	??$endl@DU?$char_traits@D@std@@@std@@YAAAV?$basic_ostream@DU?$char_traits@D@std@@@0@AAV10@@Z ; std::endl<char,std::char_traits<char> >
PUBLIC	_wmain
PUBLIC	??0_Sentry_base@?$basic_ostream@DU?$char_traits@D@std@@@std@@QAE@AAV12@@Z ; std::basic_ostream<char,std::char_traits<char> >::_Sentry_base::_Sentry_base
PUBLIC	??1_Sentry_base@?$basic_ostream@DU?$char_traits@D@std@@@std@@QAE@XZ ; std::basic_ostream<char,std::char_traits<char> >::_Sentry_base::~_Sentry_base
PUBLIC	??0sentry@?$basic_ostream@DU?$char_traits@D@std@@@std@@QAE@AAV12@@Z ; std::basic_ostream<char,std::char_traits<char> >::sentry::sentry
PUBLIC	??1sentry@?$basic_ostream@DU?$char_traits@D@std@@@std@@QAE@XZ ; std::basic_ostream<char,std::char_traits<char> >::sentry::~sentry
PUBLIC	??Bsentry@?$basic_ostream@DU?$char_traits@D@std@@@std@@QBE_NXZ ; std::basic_ostream<char,std::char_traits<char> >::sentry::operator bool
PUBLIC	??_C@_03MHLONNLM@?5?$DN?5?$AA@			; `string'
PUBLIC	??_C@_03BGMCNDOO@?5OK?$AA@			; `string'
PUBLIC	??_C@_0BD@GHEIMAKE@?5ERROR?3?5should?5be?5?$AA@	; `string'
PUBLIC	??_C@_01JEJKBAGA@g?$AA@				; `string'
PUBLIC	??_C@_0N@IFHDDOHF@min?$CI1?0?52?0?53?$CJ?$AA@	; `string'
PUBLIC	??_C@_0N@CMNDAOGK@min?$CI3?0?51?0?52?$CJ?$AA@	; `string'
PUBLIC	??_C@_0N@HECGAFHL@min?$CI2?0?53?0?51?$CJ?$AA@	; `string'
PUBLIC	??_C@_0BA@NNMBNOIK@min?$CI?91?0?5?92?0?5?93?$CJ?$AA@ ; `string'
PUBLIC	??_C@_0BA@LFIHBHOB@min?$CI?93?0?5?91?0?5?92?$CJ?$AA@ ; `string'
PUBLIC	??_C@_0BA@OBNAGHFB@min?$CI?92?0?5?93?0?5?91?$CJ?$AA@ ; `string'
PUBLIC	??_C@_0O@MGOGFLD@min?$CI?91?0?52?0?53?$CJ?$AA@	; `string'
PUBLIC	??_C@_0O@NJKIBNNI@min?$CI3?0?5?91?0?52?$CJ?$AA@	; `string'
PUBLIC	??_C@_0O@ILBPALLF@min?$CI2?0?53?0?5?91?$CJ?$AA@	; `string'
PUBLIC	??_C@_0O@CNFABAIK@p?$CI0?0?51?0?52?0?53?$CJ?$AA@ ; `string'
PUBLIC	??_C@_0O@INAKHEAB@p?$CI5?0?56?0?57?0?58?$CJ?$AA@ ; `string'
PUBLIC	??_C@_0O@OHJBDCEI@p?$CI3?0?52?0?51?0?50?$CJ?$AA@ ; `string'
PUBLIC	??_C@_0O@MHFKCBFK@p?$CI8?0?57?0?56?0?55?$CJ?$AA@ ; `string'
PUBLIC	??_C@_0M@GPNKNABC@gcd?$CI14?0?521?$CJ?$AA@	; `string'
PUBLIC	??_C@_0BF@MGHDOIID@gcd?$CI1406700?0?5164115?$CJ?$AA@ ; `string'
PUBLIC	??_C@_01CLKCMJKC@?5?$AA@			; `string'
EXTRN	_strlen:PROC
EXTRN	__imp_?uncaught_exception@std@@YA_NXZ:PROC
EXTRN	__imp_?good@ios_base@std@@QBE_NXZ:PROC
EXTRN	__imp_?flags@ios_base@std@@QBEHXZ:PROC
EXTRN	__imp_?width@ios_base@std@@QBE_JXZ:PROC
EXTRN	__imp_?width@ios_base@std@@QAE_J_J@Z:PROC
EXTRN	__imp_?sputc@?$basic_streambuf@DU?$char_traits@D@std@@@std@@QAEHD@Z:PROC
EXTRN	__imp_?sputn@?$basic_streambuf@DU?$char_traits@D@std@@@std@@QAE_JPBD_J@Z:PROC
EXTRN	__imp_?setstate@?$basic_ios@DU?$char_traits@D@std@@@std@@QAEXH_N@Z:PROC
EXTRN	__imp_?tie@?$basic_ios@DU?$char_traits@D@std@@@std@@QBEPAV?$basic_ostream@DU?$char_traits@D@std@@@2@XZ:PROC
EXTRN	__imp_?rdbuf@?$basic_ios@DU?$char_traits@D@std@@@std@@QBEPAV?$basic_streambuf@DU?$char_traits@D@std@@@2@XZ:PROC
EXTRN	__imp_?fill@?$basic_ios@DU?$char_traits@D@std@@@std@@QBEDXZ:PROC
EXTRN	__imp_?widen@?$basic_ios@DU?$char_traits@D@std@@@std@@QBEDD@Z:PROC
EXTRN	__imp_?_Osfx@?$basic_ostream@DU?$char_traits@D@std@@@std@@QAEXXZ:PROC
EXTRN	__imp_??6?$basic_ostream@DU?$char_traits@D@std@@@std@@QAEAAV01@P6AAAV01@AAV01@@Z@Z:PROC
EXTRN	__imp_??6?$basic_ostream@DU?$char_traits@D@std@@@std@@QAEAAV01@H@Z:PROC
EXTRN	__imp_?put@?$basic_ostream@DU?$char_traits@D@std@@@std@@QAEAAV12@D@Z:PROC
EXTRN	__imp_?flush@?$basic_ostream@DU?$char_traits@D@std@@@std@@QAEAAV12@XZ:PROC
EXTRN	__imp___getch:PROC
EXTRN	_min:PROC
EXTRN	_p:PROC
EXTRN	_gcd:PROC
EXTRN	_fib_IA32a:PROC
EXTRN	_fib_IA32b:PROC
EXTRN	@_RTC_CheckStackVars@8:PROC
EXTRN	@__security_check_cookie@4:PROC
EXTRN	__RTC_CheckEsp:PROC
EXTRN	__RTC_InitBase:PROC
EXTRN	__RTC_Shutdown:PROC
EXTRN	___CxxFrameHandler3:PROC
EXTRN	__imp_?cout@std@@3V?$basic_ostream@DU?$char_traits@D@std@@@1@A:BYTE
EXTRN	_g:DWORD
EXTRN	___security_cookie:DWORD
;	COMDAT rtc$TMZ
rtc$TMZ	SEGMENT
__RTC_Shutdown.rtc$TMZ DD FLAT:__RTC_Shutdown
rtc$TMZ	ENDS
;	COMDAT rtc$IMZ
rtc$IMZ	SEGMENT
__RTC_InitBase.rtc$IMZ DD FLAT:__RTC_InitBase
rtc$IMZ	ENDS
;	COMDAT ??_C@_01CLKCMJKC@?5?$AA@
CONST	SEGMENT
??_C@_01CLKCMJKC@?5?$AA@ DB ' ', 00H			; `string'
CONST	ENDS
;	COMDAT ??_C@_0BF@MGHDOIID@gcd?$CI1406700?0?5164115?$CJ?$AA@
CONST	SEGMENT
??_C@_0BF@MGHDOIID@gcd?$CI1406700?0?5164115?$CJ?$AA@ DB 'gcd(1406700, 164'
	DB	'115)', 00H					; `string'
CONST	ENDS
;	COMDAT ??_C@_0M@GPNKNABC@gcd?$CI14?0?521?$CJ?$AA@
CONST	SEGMENT
??_C@_0M@GPNKNABC@gcd?$CI14?0?521?$CJ?$AA@ DB 'gcd(14, 21)', 00H ; `string'
CONST	ENDS
;	COMDAT ??_C@_0O@MHFKCBFK@p?$CI8?0?57?0?56?0?55?$CJ?$AA@
CONST	SEGMENT
??_C@_0O@MHFKCBFK@p?$CI8?0?57?0?56?0?55?$CJ?$AA@ DB 'p(8, 7, 6, 5)', 00H ; `string'
CONST	ENDS
;	COMDAT ??_C@_0O@OHJBDCEI@p?$CI3?0?52?0?51?0?50?$CJ?$AA@
CONST	SEGMENT
??_C@_0O@OHJBDCEI@p?$CI3?0?52?0?51?0?50?$CJ?$AA@ DB 'p(3, 2, 1, 0)', 00H ; `string'
CONST	ENDS
;	COMDAT ??_C@_0O@INAKHEAB@p?$CI5?0?56?0?57?0?58?$CJ?$AA@
CONST	SEGMENT
??_C@_0O@INAKHEAB@p?$CI5?0?56?0?57?0?58?$CJ?$AA@ DB 'p(5, 6, 7, 8)', 00H ; `string'
CONST	ENDS
;	COMDAT ??_C@_0O@CNFABAIK@p?$CI0?0?51?0?52?0?53?$CJ?$AA@
CONST	SEGMENT
??_C@_0O@CNFABAIK@p?$CI0?0?51?0?52?0?53?$CJ?$AA@ DB 'p(0, 1, 2, 3)', 00H ; `string'
CONST	ENDS
;	COMDAT ??_C@_0O@ILBPALLF@min?$CI2?0?53?0?5?91?$CJ?$AA@
CONST	SEGMENT
??_C@_0O@ILBPALLF@min?$CI2?0?53?0?5?91?$CJ?$AA@ DB 'min(2, 3, -1)', 00H ; `string'
CONST	ENDS
;	COMDAT ??_C@_0O@NJKIBNNI@min?$CI3?0?5?91?0?52?$CJ?$AA@
CONST	SEGMENT
??_C@_0O@NJKIBNNI@min?$CI3?0?5?91?0?52?$CJ?$AA@ DB 'min(3, -1, 2)', 00H ; `string'
CONST	ENDS
;	COMDAT ??_C@_0O@MGOGFLD@min?$CI?91?0?52?0?53?$CJ?$AA@
CONST	SEGMENT
??_C@_0O@MGOGFLD@min?$CI?91?0?52?0?53?$CJ?$AA@ DB 'min(-1, 2, 3)', 00H ; `string'
CONST	ENDS
;	COMDAT ??_C@_0BA@OBNAGHFB@min?$CI?92?0?5?93?0?5?91?$CJ?$AA@
CONST	SEGMENT
??_C@_0BA@OBNAGHFB@min?$CI?92?0?5?93?0?5?91?$CJ?$AA@ DB 'min(-2, -3, -1)', 00H ; `string'
CONST	ENDS
;	COMDAT ??_C@_0BA@LFIHBHOB@min?$CI?93?0?5?91?0?5?92?$CJ?$AA@
CONST	SEGMENT
??_C@_0BA@LFIHBHOB@min?$CI?93?0?5?91?0?5?92?$CJ?$AA@ DB 'min(-3, -1, -2)', 00H ; `string'
CONST	ENDS
;	COMDAT ??_C@_0BA@NNMBNOIK@min?$CI?91?0?5?92?0?5?93?$CJ?$AA@
CONST	SEGMENT
??_C@_0BA@NNMBNOIK@min?$CI?91?0?5?92?0?5?93?$CJ?$AA@ DB 'min(-1, -2, -3)', 00H ; `string'
CONST	ENDS
;	COMDAT ??_C@_0N@HECGAFHL@min?$CI2?0?53?0?51?$CJ?$AA@
CONST	SEGMENT
??_C@_0N@HECGAFHL@min?$CI2?0?53?0?51?$CJ?$AA@ DB 'min(2, 3, 1)', 00H ; `string'
CONST	ENDS
;	COMDAT ??_C@_0N@CMNDAOGK@min?$CI3?0?51?0?52?$CJ?$AA@
CONST	SEGMENT
??_C@_0N@CMNDAOGK@min?$CI3?0?51?0?52?$CJ?$AA@ DB 'min(3, 1, 2)', 00H ; `string'
CONST	ENDS
;	COMDAT ??_C@_0N@IFHDDOHF@min?$CI1?0?52?0?53?$CJ?$AA@
CONST	SEGMENT
??_C@_0N@IFHDDOHF@min?$CI1?0?52?0?53?$CJ?$AA@ DB 'min(1, 2, 3)', 00H ; `string'
CONST	ENDS
;	COMDAT ??_C@_01JEJKBAGA@g?$AA@
CONST	SEGMENT
??_C@_01JEJKBAGA@g?$AA@ DB 'g', 00H			; `string'
CONST	ENDS
;	COMDAT ??_C@_0BD@GHEIMAKE@?5ERROR?3?5should?5be?5?$AA@
CONST	SEGMENT
??_C@_0BD@GHEIMAKE@?5ERROR?3?5should?5be?5?$AA@ DB ' ERROR: should be ', 00H ; `string'
CONST	ENDS
;	COMDAT ??_C@_03BGMCNDOO@?5OK?$AA@
CONST	SEGMENT
??_C@_03BGMCNDOO@?5OK?$AA@ DB ' OK', 00H		; `string'
CONST	ENDS
;	COMDAT ??_C@_03MHLONNLM@?5?$DN?5?$AA@
CONST	SEGMENT
??_C@_03MHLONNLM@?5?$DN?5?$AA@ DB ' = ', 00H		; `string'
CONST	ENDS
;	COMDAT xdata$x
xdata$x	SEGMENT
__ehfuncinfo$??1sentry@?$basic_ostream@DU?$char_traits@D@std@@@std@@QAE@XZ DD 019930522H
	DD	00H
	DD	00H
	DD	2 DUP(00H)
	DD	2 DUP(00H)
	DD	00H
	DD	05H
xdata$x	ENDS
;	COMDAT xdata$x
xdata$x	SEGMENT
__unwindtable$??0sentry@?$basic_ostream@DU?$char_traits@D@std@@@std@@QAE@AAV12@@Z DD 0ffffffffH
	DD	FLAT:__unwindfunclet$??0sentry@?$basic_ostream@DU?$char_traits@D@std@@@std@@QAE@AAV12@@Z$0
__ehfuncinfo$??0sentry@?$basic_ostream@DU?$char_traits@D@std@@@std@@QAE@AAV12@@Z DD 019930522H
	DD	01H
	DD	FLAT:__unwindtable$??0sentry@?$basic_ostream@DU?$char_traits@D@std@@@std@@QAE@AAV12@@Z
	DD	2 DUP(00H)
	DD	2 DUP(00H)
	DD	00H
	DD	01H
xdata$x	ENDS
;	COMDAT xdata$x
xdata$x	SEGMENT
__ehfuncinfo$??1_Sentry_base@?$basic_ostream@DU?$char_traits@D@std@@@std@@QAE@XZ DD 019930522H
	DD	00H
	DD	00H
	DD	2 DUP(00H)
	DD	2 DUP(00H)
	DD	00H
	DD	05H
xdata$x	ENDS
;	COMDAT xdata$x
xdata$x	SEGMENT
__catchsym$??$?6U?$char_traits@D@std@@@std@@YAAAV?$basic_ostream@DU?$char_traits@D@std@@@0@AAV10@PBD@Z$3 DD 040H
	DD	00H
	DD	00H
	DD	FLAT:__catch$??$?6U?$char_traits@D@std@@@std@@YAAAV?$basic_ostream@DU?$char_traits@D@std@@@0@AAV10@PBD@Z$0
__tryblocktable$??$?6U?$char_traits@D@std@@@std@@YAAAV?$basic_ostream@DU?$char_traits@D@std@@@0@AAV10@PBD@Z DD 01H
	DD	01H
	DD	02H
	DD	01H
	DD	FLAT:__catchsym$??$?6U?$char_traits@D@std@@@std@@YAAAV?$basic_ostream@DU?$char_traits@D@std@@@0@AAV10@PBD@Z$3
__unwindtable$??$?6U?$char_traits@D@std@@@std@@YAAAV?$basic_ostream@DU?$char_traits@D@std@@@0@AAV10@PBD@Z DD 0ffffffffH
	DD	FLAT:__unwindfunclet$??$?6U?$char_traits@D@std@@@std@@YAAAV?$basic_ostream@DU?$char_traits@D@std@@@0@AAV10@PBD@Z$2
	DD	00H
	DD	00H
	DD	00H
	DD	00H
__ehfuncinfo$??$?6U?$char_traits@D@std@@@std@@YAAAV?$basic_ostream@DU?$char_traits@D@std@@@0@AAV10@PBD@Z DD 019930522H
	DD	03H
	DD	FLAT:__unwindtable$??$?6U?$char_traits@D@std@@@std@@YAAAV?$basic_ostream@DU?$char_traits@D@std@@@0@AAV10@PBD@Z
	DD	01H
	DD	FLAT:__tryblocktable$??$?6U?$char_traits@D@std@@@std@@YAAAV?$basic_ostream@DU?$char_traits@D@std@@@0@AAV10@PBD@Z
	DD	2 DUP(00H)
	DD	00H
	DD	01H
xdata$x	ENDS
; Function compile flags: /Odtp /RTCsu /ZI
; File c:\program files (x86)\microsoft visual studio\2017\enterprise\vc\tools\msvc\14.10.25017\include\ostream
;	COMDAT ??Bsentry@?$basic_ostream@DU?$char_traits@D@std@@@std@@QBE_NXZ
_TEXT	SEGMENT
_this$ = -8						; size = 4
??Bsentry@?$basic_ostream@DU?$char_traits@D@std@@@std@@QBE_NXZ PROC ; std::basic_ostream<char,std::char_traits<char> >::sentry::operator bool, COMDAT
; _this$ = ecx

; 140  : 			{	// test if stream state okay

  00000	55		 push	 ebp
  00001	8b ec		 mov	 ebp, esp
  00003	81 ec cc 00 00
	00		 sub	 esp, 204		; 000000ccH
  00009	53		 push	 ebx
  0000a	56		 push	 esi
  0000b	57		 push	 edi
  0000c	51		 push	 ecx
  0000d	8d bd 34 ff ff
	ff		 lea	 edi, DWORD PTR [ebp-204]
  00013	b9 33 00 00 00	 mov	 ecx, 51			; 00000033H
  00018	b8 cc cc cc cc	 mov	 eax, -858993460		; ccccccccH
  0001d	f3 ab		 rep stosd
  0001f	59		 pop	 ecx
  00020	89 4d f8	 mov	 DWORD PTR _this$[ebp], ecx

; 141  : 			return (_Ok);

  00023	8b 45 f8	 mov	 eax, DWORD PTR _this$[ebp]
  00026	8a 40 04	 mov	 al, BYTE PTR [eax+4]

; 142  : 			}

  00029	5f		 pop	 edi
  0002a	5e		 pop	 esi
  0002b	5b		 pop	 ebx
  0002c	8b e5		 mov	 esp, ebp
  0002e	5d		 pop	 ebp
  0002f	c3		 ret	 0
??Bsentry@?$basic_ostream@DU?$char_traits@D@std@@@std@@QBE_NXZ ENDP ; std::basic_ostream<char,std::char_traits<char> >::sentry::operator bool
_TEXT	ENDS
; Function compile flags: /Odtp /RTCsu /ZI
; File c:\program files (x86)\microsoft visual studio\2017\enterprise\vc\tools\msvc\14.10.25017\include\ostream
;	COMDAT ??1sentry@?$basic_ostream@DU?$char_traits@D@std@@@std@@QAE@XZ
_TEXT	SEGMENT
_this$ = -20						; size = 4
__$EHRec$ = -12						; size = 12
??1sentry@?$basic_ostream@DU?$char_traits@D@std@@@std@@QAE@XZ PROC ; std::basic_ostream<char,std::char_traits<char> >::sentry::~sentry, COMDAT
; _this$ = ecx

; 129  : 			{	// destroy the object

  00000	55		 push	 ebp
  00001	8b ec		 mov	 ebp, esp
  00003	6a ff		 push	 -1
  00005	68 00 00 00 00	 push	 __ehhandler$??1sentry@?$basic_ostream@DU?$char_traits@D@std@@@std@@QAE@XZ
  0000a	64 a1 00 00 00
	00		 mov	 eax, DWORD PTR fs:0
  00010	50		 push	 eax
  00011	81 ec cc 00 00
	00		 sub	 esp, 204		; 000000ccH
  00017	53		 push	 ebx
  00018	56		 push	 esi
  00019	57		 push	 edi
  0001a	51		 push	 ecx
  0001b	8d bd 28 ff ff
	ff		 lea	 edi, DWORD PTR [ebp-216]
  00021	b9 33 00 00 00	 mov	 ecx, 51			; 00000033H
  00026	b8 cc cc cc cc	 mov	 eax, -858993460		; ccccccccH
  0002b	f3 ab		 rep stosd
  0002d	59		 pop	 ecx
  0002e	a1 00 00 00 00	 mov	 eax, DWORD PTR ___security_cookie
  00033	33 c5		 xor	 eax, ebp
  00035	50		 push	 eax
  00036	8d 45 f4	 lea	 eax, DWORD PTR __$EHRec$[ebp]
  00039	64 a3 00 00 00
	00		 mov	 DWORD PTR fs:0, eax
  0003f	89 4d ec	 mov	 DWORD PTR _this$[ebp], ecx

; 130  :  #if _HAS_EXCEPTIONS
; 131  : 			if (!_STD uncaught_exception())

  00042	8b f4		 mov	 esi, esp
  00044	ff 15 00 00 00
	00		 call	 DWORD PTR __imp_?uncaught_exception@std@@YA_NXZ
  0004a	3b f4		 cmp	 esi, esp
  0004c	e8 00 00 00 00	 call	 __RTC_CheckEsp
  00051	0f b6 c0	 movzx	 eax, al
  00054	85 c0		 test	 eax, eax
  00056	75 14		 jne	 SHORT $LN1@sentry

; 132  : 				this->_Myostr._Osfx();

  00058	8b f4		 mov	 esi, esp
  0005a	8b 45 ec	 mov	 eax, DWORD PTR _this$[ebp]
  0005d	8b 08		 mov	 ecx, DWORD PTR [eax]
  0005f	ff 15 00 00 00
	00		 call	 DWORD PTR __imp_?_Osfx@?$basic_ostream@DU?$char_traits@D@std@@@std@@QAEXXZ
  00065	3b f4		 cmp	 esi, esp
  00067	e8 00 00 00 00	 call	 __RTC_CheckEsp
$LN1@sentry:

; 133  : 
; 134  :  #else /* _HAS_EXCEPTIONS */
; 135  : 			this->_Myostr._Osfx();
; 136  :  #endif /* _HAS_EXCEPTIONS */
; 137  : 			}

  0006c	8b 4d ec	 mov	 ecx, DWORD PTR _this$[ebp]
  0006f	e8 00 00 00 00	 call	 ??1_Sentry_base@?$basic_ostream@DU?$char_traits@D@std@@@std@@QAE@XZ ; std::basic_ostream<char,std::char_traits<char> >::_Sentry_base::~_Sentry_base
  00074	8b 4d f4	 mov	 ecx, DWORD PTR __$EHRec$[ebp]
  00077	64 89 0d 00 00
	00 00		 mov	 DWORD PTR fs:0, ecx
  0007e	59		 pop	 ecx
  0007f	5f		 pop	 edi
  00080	5e		 pop	 esi
  00081	5b		 pop	 ebx
  00082	81 c4 d8 00 00
	00		 add	 esp, 216		; 000000d8H
  00088	3b ec		 cmp	 ebp, esp
  0008a	e8 00 00 00 00	 call	 __RTC_CheckEsp
  0008f	8b e5		 mov	 esp, ebp
  00091	5d		 pop	 ebp
  00092	c3		 ret	 0
_TEXT	ENDS
;	COMDAT text$x
text$x	SEGMENT
__ehhandler$??1sentry@?$basic_ostream@DU?$char_traits@D@std@@@std@@QAE@XZ:
  00000	8b 54 24 08	 mov	 edx, DWORD PTR [esp+8]
  00004	8d 42 0c	 lea	 eax, DWORD PTR [edx+12]
  00007	8b 8a 24 ff ff
	ff		 mov	 ecx, DWORD PTR [edx-220]
  0000d	33 c8		 xor	 ecx, eax
  0000f	e8 00 00 00 00	 call	 @__security_check_cookie@4
  00014	b8 00 00 00 00	 mov	 eax, OFFSET __ehfuncinfo$??1sentry@?$basic_ostream@DU?$char_traits@D@std@@@std@@QAE@XZ
  00019	e9 00 00 00 00	 jmp	 ___CxxFrameHandler3
text$x	ENDS
??1sentry@?$basic_ostream@DU?$char_traits@D@std@@@std@@QAE@XZ ENDP ; std::basic_ostream<char,std::char_traits<char> >::sentry::~sentry
; Function compile flags: /Odtp /RTCsu /ZI
; File c:\program files (x86)\microsoft visual studio\2017\enterprise\vc\tools\msvc\14.10.25017\include\ostream
;	COMDAT ??0sentry@?$basic_ostream@DU?$char_traits@D@std@@@std@@QAE@AAV12@@Z
_TEXT	SEGMENT
_this$ = -20						; size = 4
__$EHRec$ = -12						; size = 12
__Ostr$ = 8						; size = 4
??0sentry@?$basic_ostream@DU?$char_traits@D@std@@@std@@QAE@AAV12@@Z PROC ; std::basic_ostream<char,std::char_traits<char> >::sentry::sentry, COMDAT
; _this$ = ecx

; 122  : 			{	// construct locking and testing stream

  00000	55		 push	 ebp
  00001	8b ec		 mov	 ebp, esp
  00003	6a ff		 push	 -1
  00005	68 00 00 00 00	 push	 __ehhandler$??0sentry@?$basic_ostream@DU?$char_traits@D@std@@@std@@QAE@AAV12@@Z
  0000a	64 a1 00 00 00
	00		 mov	 eax, DWORD PTR fs:0
  00010	50		 push	 eax
  00011	81 ec cc 00 00
	00		 sub	 esp, 204		; 000000ccH
  00017	53		 push	 ebx
  00018	56		 push	 esi
  00019	57		 push	 edi
  0001a	51		 push	 ecx
  0001b	8d bd 28 ff ff
	ff		 lea	 edi, DWORD PTR [ebp-216]
  00021	b9 33 00 00 00	 mov	 ecx, 51			; 00000033H
  00026	b8 cc cc cc cc	 mov	 eax, -858993460		; ccccccccH
  0002b	f3 ab		 rep stosd
  0002d	59		 pop	 ecx
  0002e	a1 00 00 00 00	 mov	 eax, DWORD PTR ___security_cookie
  00033	33 c5		 xor	 eax, ebp
  00035	50		 push	 eax
  00036	8d 45 f4	 lea	 eax, DWORD PTR __$EHRec$[ebp]
  00039	64 a3 00 00 00
	00		 mov	 DWORD PTR fs:0, eax
  0003f	89 4d ec	 mov	 DWORD PTR _this$[ebp], ecx

; 121  : 			: _Sentry_base(_Ostr)

  00042	8b 45 08	 mov	 eax, DWORD PTR __Ostr$[ebp]
  00045	50		 push	 eax
  00046	8b 4d ec	 mov	 ecx, DWORD PTR _this$[ebp]
  00049	e8 00 00 00 00	 call	 ??0_Sentry_base@?$basic_ostream@DU?$char_traits@D@std@@@std@@QAE@AAV12@@Z ; std::basic_ostream<char,std::char_traits<char> >::_Sentry_base::_Sentry_base
  0004e	c7 45 fc 00 00
	00 00		 mov	 DWORD PTR __$EHRec$[ebp+8], 0

; 123  : 			if (_Ostr.good() && _Ostr.tie() != 0 && _Ostr.tie() != &_Ostr)

  00055	8b 45 08	 mov	 eax, DWORD PTR __Ostr$[ebp]
  00058	8b 08		 mov	 ecx, DWORD PTR [eax]
  0005a	8b 55 08	 mov	 edx, DWORD PTR __Ostr$[ebp]
  0005d	03 51 04	 add	 edx, DWORD PTR [ecx+4]
  00060	8b f4		 mov	 esi, esp
  00062	8b ca		 mov	 ecx, edx
  00064	ff 15 00 00 00
	00		 call	 DWORD PTR __imp_?good@ios_base@std@@QBE_NXZ
  0006a	3b f4		 cmp	 esi, esp
  0006c	e8 00 00 00 00	 call	 __RTC_CheckEsp
  00071	0f b6 c0	 movzx	 eax, al
  00074	85 c0		 test	 eax, eax
  00076	74 6e		 je	 SHORT $LN2@sentry
  00078	8b 45 08	 mov	 eax, DWORD PTR __Ostr$[ebp]
  0007b	8b 08		 mov	 ecx, DWORD PTR [eax]
  0007d	8b 55 08	 mov	 edx, DWORD PTR __Ostr$[ebp]
  00080	03 51 04	 add	 edx, DWORD PTR [ecx+4]
  00083	8b f4		 mov	 esi, esp
  00085	8b ca		 mov	 ecx, edx
  00087	ff 15 00 00 00
	00		 call	 DWORD PTR __imp_?tie@?$basic_ios@DU?$char_traits@D@std@@@std@@QBEPAV?$basic_ostream@DU?$char_traits@D@std@@@2@XZ
  0008d	3b f4		 cmp	 esi, esp
  0008f	e8 00 00 00 00	 call	 __RTC_CheckEsp
  00094	85 c0		 test	 eax, eax
  00096	74 4e		 je	 SHORT $LN2@sentry
  00098	8b 45 08	 mov	 eax, DWORD PTR __Ostr$[ebp]
  0009b	8b 08		 mov	 ecx, DWORD PTR [eax]
  0009d	8b 55 08	 mov	 edx, DWORD PTR __Ostr$[ebp]
  000a0	03 51 04	 add	 edx, DWORD PTR [ecx+4]
  000a3	8b f4		 mov	 esi, esp
  000a5	8b ca		 mov	 ecx, edx
  000a7	ff 15 00 00 00
	00		 call	 DWORD PTR __imp_?tie@?$basic_ios@DU?$char_traits@D@std@@@std@@QBEPAV?$basic_ostream@DU?$char_traits@D@std@@@2@XZ
  000ad	3b f4		 cmp	 esi, esp
  000af	e8 00 00 00 00	 call	 __RTC_CheckEsp
  000b4	3b 45 08	 cmp	 eax, DWORD PTR __Ostr$[ebp]
  000b7	74 2d		 je	 SHORT $LN2@sentry

; 124  : 				_Ostr.tie()->flush();

  000b9	8b 45 08	 mov	 eax, DWORD PTR __Ostr$[ebp]
  000bc	8b 08		 mov	 ecx, DWORD PTR [eax]
  000be	8b 55 08	 mov	 edx, DWORD PTR __Ostr$[ebp]
  000c1	03 51 04	 add	 edx, DWORD PTR [ecx+4]
  000c4	8b f4		 mov	 esi, esp
  000c6	8b ca		 mov	 ecx, edx
  000c8	ff 15 00 00 00
	00		 call	 DWORD PTR __imp_?tie@?$basic_ios@DU?$char_traits@D@std@@@std@@QBEPAV?$basic_ostream@DU?$char_traits@D@std@@@2@XZ
  000ce	3b f4		 cmp	 esi, esp
  000d0	e8 00 00 00 00	 call	 __RTC_CheckEsp
  000d5	8b f4		 mov	 esi, esp
  000d7	8b c8		 mov	 ecx, eax
  000d9	ff 15 00 00 00
	00		 call	 DWORD PTR __imp_?flush@?$basic_ostream@DU?$char_traits@D@std@@@std@@QAEAAV12@XZ
  000df	3b f4		 cmp	 esi, esp
  000e1	e8 00 00 00 00	 call	 __RTC_CheckEsp
$LN2@sentry:

; 125  : 			_Ok = _Ostr.good();	// store test only after flushing tie

  000e6	8b 45 08	 mov	 eax, DWORD PTR __Ostr$[ebp]
  000e9	8b 08		 mov	 ecx, DWORD PTR [eax]
  000eb	8b 55 08	 mov	 edx, DWORD PTR __Ostr$[ebp]
  000ee	03 51 04	 add	 edx, DWORD PTR [ecx+4]
  000f1	8b f4		 mov	 esi, esp
  000f3	8b ca		 mov	 ecx, edx
  000f5	ff 15 00 00 00
	00		 call	 DWORD PTR __imp_?good@ios_base@std@@QBE_NXZ
  000fb	3b f4		 cmp	 esi, esp
  000fd	e8 00 00 00 00	 call	 __RTC_CheckEsp
  00102	8b 4d ec	 mov	 ecx, DWORD PTR _this$[ebp]
  00105	88 41 04	 mov	 BYTE PTR [ecx+4], al

; 126  : 			}

  00108	c7 45 fc ff ff
	ff ff		 mov	 DWORD PTR __$EHRec$[ebp+8], -1
  0010f	8b 45 ec	 mov	 eax, DWORD PTR _this$[ebp]
  00112	8b 4d f4	 mov	 ecx, DWORD PTR __$EHRec$[ebp]
  00115	64 89 0d 00 00
	00 00		 mov	 DWORD PTR fs:0, ecx
  0011c	59		 pop	 ecx
  0011d	5f		 pop	 edi
  0011e	5e		 pop	 esi
  0011f	5b		 pop	 ebx
  00120	81 c4 d8 00 00
	00		 add	 esp, 216		; 000000d8H
  00126	3b ec		 cmp	 ebp, esp
  00128	e8 00 00 00 00	 call	 __RTC_CheckEsp
  0012d	8b e5		 mov	 esp, ebp
  0012f	5d		 pop	 ebp
  00130	c2 04 00	 ret	 4
_TEXT	ENDS
;	COMDAT text$x
text$x	SEGMENT
__unwindfunclet$??0sentry@?$basic_ostream@DU?$char_traits@D@std@@@std@@QAE@AAV12@@Z$0:
  00000	8b 4d ec	 mov	 ecx, DWORD PTR _this$[ebp]
  00003	e9 00 00 00 00	 jmp	 ??1_Sentry_base@?$basic_ostream@DU?$char_traits@D@std@@@std@@QAE@XZ ; std::basic_ostream<char,std::char_traits<char> >::_Sentry_base::~_Sentry_base
__ehhandler$??0sentry@?$basic_ostream@DU?$char_traits@D@std@@@std@@QAE@AAV12@@Z:
  00008	8b 54 24 08	 mov	 edx, DWORD PTR [esp+8]
  0000c	8d 42 0c	 lea	 eax, DWORD PTR [edx+12]
  0000f	8b 8a 24 ff ff
	ff		 mov	 ecx, DWORD PTR [edx-220]
  00015	33 c8		 xor	 ecx, eax
  00017	e8 00 00 00 00	 call	 @__security_check_cookie@4
  0001c	b8 00 00 00 00	 mov	 eax, OFFSET __ehfuncinfo$??0sentry@?$basic_ostream@DU?$char_traits@D@std@@@std@@QAE@AAV12@@Z
  00021	e9 00 00 00 00	 jmp	 ___CxxFrameHandler3
text$x	ENDS
??0sentry@?$basic_ostream@DU?$char_traits@D@std@@@std@@QAE@AAV12@@Z ENDP ; std::basic_ostream<char,std::char_traits<char> >::sentry::sentry
; Function compile flags: /Odtp /RTCsu /ZI
; File c:\program files (x86)\microsoft visual studio\2017\enterprise\vc\tools\msvc\14.10.25017\include\ostream
;	COMDAT ??1_Sentry_base@?$basic_ostream@DU?$char_traits@D@std@@@std@@QAE@XZ
_TEXT	SEGMENT
tv92 = -224						; size = 4
tv86 = -220						; size = 4
tv72 = -220						; size = 4
_this$ = -20						; size = 4
__$EHRec$ = -12						; size = 12
??1_Sentry_base@?$basic_ostream@DU?$char_traits@D@std@@@std@@QAE@XZ PROC ; std::basic_ostream<char,std::char_traits<char> >::_Sentry_base::~_Sentry_base, COMDAT
; _this$ = ecx

; 105  : 			{	// destroy after unlocking

  00000	55		 push	 ebp
  00001	8b ec		 mov	 ebp, esp
  00003	6a ff		 push	 -1
  00005	68 00 00 00 00	 push	 __ehhandler$??1_Sentry_base@?$basic_ostream@DU?$char_traits@D@std@@@std@@QAE@XZ
  0000a	64 a1 00 00 00
	00		 mov	 eax, DWORD PTR fs:0
  00010	50		 push	 eax
  00011	81 ec d4 00 00
	00		 sub	 esp, 212		; 000000d4H
  00017	53		 push	 ebx
  00018	56		 push	 esi
  00019	57		 push	 edi
  0001a	51		 push	 ecx
  0001b	8d bd 20 ff ff
	ff		 lea	 edi, DWORD PTR [ebp-224]
  00021	b9 35 00 00 00	 mov	 ecx, 53			; 00000035H
  00026	b8 cc cc cc cc	 mov	 eax, -858993460		; ccccccccH
  0002b	f3 ab		 rep stosd
  0002d	59		 pop	 ecx
  0002e	a1 00 00 00 00	 mov	 eax, DWORD PTR ___security_cookie
  00033	33 c5		 xor	 eax, ebp
  00035	50		 push	 eax
  00036	8d 45 f4	 lea	 eax, DWORD PTR __$EHRec$[ebp]
  00039	64 a3 00 00 00
	00		 mov	 DWORD PTR fs:0, eax
  0003f	89 4d ec	 mov	 DWORD PTR _this$[ebp], ecx

; 106  : 			if (_Myostr.rdbuf() != 0)

  00042	8b 45 ec	 mov	 eax, DWORD PTR _this$[ebp]
  00045	8b 08		 mov	 ecx, DWORD PTR [eax]
  00047	89 8d 24 ff ff
	ff		 mov	 DWORD PTR tv72[ebp], ecx
  0004d	8b 95 24 ff ff
	ff		 mov	 edx, DWORD PTR tv72[ebp]
  00053	8b 02		 mov	 eax, DWORD PTR [edx]
  00055	8b 8d 24 ff ff
	ff		 mov	 ecx, DWORD PTR tv72[ebp]
  0005b	03 48 04	 add	 ecx, DWORD PTR [eax+4]
  0005e	8b f4		 mov	 esi, esp
  00060	ff 15 00 00 00
	00		 call	 DWORD PTR __imp_?rdbuf@?$basic_ios@DU?$char_traits@D@std@@@std@@QBEPAV?$basic_streambuf@DU?$char_traits@D@std@@@2@XZ
  00066	3b f4		 cmp	 esi, esp
  00068	e8 00 00 00 00	 call	 __RTC_CheckEsp
  0006d	85 c0		 test	 eax, eax
  0006f	74 4d		 je	 SHORT $LN3@Sentry_bas

; 107  : 				_Myostr.rdbuf()->_Unlock();

  00071	8b 45 ec	 mov	 eax, DWORD PTR _this$[ebp]
  00074	8b 08		 mov	 ecx, DWORD PTR [eax]
  00076	89 8d 24 ff ff
	ff		 mov	 DWORD PTR tv86[ebp], ecx
  0007c	8b 95 24 ff ff
	ff		 mov	 edx, DWORD PTR tv86[ebp]
  00082	8b 02		 mov	 eax, DWORD PTR [edx]
  00084	8b 8d 24 ff ff
	ff		 mov	 ecx, DWORD PTR tv86[ebp]
  0008a	03 48 04	 add	 ecx, DWORD PTR [eax+4]
  0008d	8b f4		 mov	 esi, esp
  0008f	ff 15 00 00 00
	00		 call	 DWORD PTR __imp_?rdbuf@?$basic_ios@DU?$char_traits@D@std@@@std@@QBEPAV?$basic_streambuf@DU?$char_traits@D@std@@@2@XZ
  00095	3b f4		 cmp	 esi, esp
  00097	e8 00 00 00 00	 call	 __RTC_CheckEsp
  0009c	89 85 20 ff ff
	ff		 mov	 DWORD PTR tv92[ebp], eax
  000a2	8b 8d 20 ff ff
	ff		 mov	 ecx, DWORD PTR tv92[ebp]
  000a8	8b 11		 mov	 edx, DWORD PTR [ecx]
  000aa	8b f4		 mov	 esi, esp
  000ac	8b 8d 20 ff ff
	ff		 mov	 ecx, DWORD PTR tv92[ebp]
  000b2	8b 42 08	 mov	 eax, DWORD PTR [edx+8]
  000b5	ff d0		 call	 eax
  000b7	3b f4		 cmp	 esi, esp
  000b9	e8 00 00 00 00	 call	 __RTC_CheckEsp
$LN3@Sentry_bas:

; 108  : 			}

  000be	8b 4d f4	 mov	 ecx, DWORD PTR __$EHRec$[ebp]
  000c1	64 89 0d 00 00
	00 00		 mov	 DWORD PTR fs:0, ecx
  000c8	59		 pop	 ecx
  000c9	5f		 pop	 edi
  000ca	5e		 pop	 esi
  000cb	5b		 pop	 ebx
  000cc	81 c4 e0 00 00
	00		 add	 esp, 224		; 000000e0H
  000d2	3b ec		 cmp	 ebp, esp
  000d4	e8 00 00 00 00	 call	 __RTC_CheckEsp
  000d9	8b e5		 mov	 esp, ebp
  000db	5d		 pop	 ebp
  000dc	c3		 ret	 0
_TEXT	ENDS
;	COMDAT text$x
text$x	SEGMENT
__ehhandler$??1_Sentry_base@?$basic_ostream@DU?$char_traits@D@std@@@std@@QAE@XZ:
  00000	8b 54 24 08	 mov	 edx, DWORD PTR [esp+8]
  00004	8d 42 0c	 lea	 eax, DWORD PTR [edx+12]
  00007	8b 8a 1c ff ff
	ff		 mov	 ecx, DWORD PTR [edx-228]
  0000d	33 c8		 xor	 ecx, eax
  0000f	e8 00 00 00 00	 call	 @__security_check_cookie@4
  00014	b8 00 00 00 00	 mov	 eax, OFFSET __ehfuncinfo$??1_Sentry_base@?$basic_ostream@DU?$char_traits@D@std@@@std@@QAE@XZ
  00019	e9 00 00 00 00	 jmp	 ___CxxFrameHandler3
text$x	ENDS
??1_Sentry_base@?$basic_ostream@DU?$char_traits@D@std@@@std@@QAE@XZ ENDP ; std::basic_ostream<char,std::char_traits<char> >::_Sentry_base::~_Sentry_base
; Function compile flags: /Odtp /RTCsu /ZI
; File c:\program files (x86)\microsoft visual studio\2017\enterprise\vc\tools\msvc\14.10.25017\include\ostream
;	COMDAT ??0_Sentry_base@?$basic_ostream@DU?$char_traits@D@std@@@std@@QAE@AAV12@@Z
_TEXT	SEGMENT
tv93 = -212						; size = 4
tv87 = -208						; size = 4
tv73 = -208						; size = 4
_this$ = -8						; size = 4
__Ostr$ = 8						; size = 4
??0_Sentry_base@?$basic_ostream@DU?$char_traits@D@std@@@std@@QAE@AAV12@@Z PROC ; std::basic_ostream<char,std::char_traits<char> >::_Sentry_base::_Sentry_base, COMDAT
; _this$ = ecx

; 99   : 			{	// lock the stream buffer, if there

  00000	55		 push	 ebp
  00001	8b ec		 mov	 ebp, esp
  00003	81 ec d4 00 00
	00		 sub	 esp, 212		; 000000d4H
  00009	53		 push	 ebx
  0000a	56		 push	 esi
  0000b	57		 push	 edi
  0000c	51		 push	 ecx
  0000d	8d bd 2c ff ff
	ff		 lea	 edi, DWORD PTR [ebp-212]
  00013	b9 35 00 00 00	 mov	 ecx, 53			; 00000035H
  00018	b8 cc cc cc cc	 mov	 eax, -858993460		; ccccccccH
  0001d	f3 ab		 rep stosd
  0001f	59		 pop	 ecx
  00020	89 4d f8	 mov	 DWORD PTR _this$[ebp], ecx

; 98   : 			: _Myostr(_Ostr)

  00023	8b 45 f8	 mov	 eax, DWORD PTR _this$[ebp]
  00026	8b 4d 08	 mov	 ecx, DWORD PTR __Ostr$[ebp]
  00029	89 08		 mov	 DWORD PTR [eax], ecx

; 100  : 			if (_Myostr.rdbuf() != 0)

  0002b	8b 45 f8	 mov	 eax, DWORD PTR _this$[ebp]
  0002e	8b 08		 mov	 ecx, DWORD PTR [eax]
  00030	89 8d 30 ff ff
	ff		 mov	 DWORD PTR tv73[ebp], ecx
  00036	8b 95 30 ff ff
	ff		 mov	 edx, DWORD PTR tv73[ebp]
  0003c	8b 02		 mov	 eax, DWORD PTR [edx]
  0003e	8b 8d 30 ff ff
	ff		 mov	 ecx, DWORD PTR tv73[ebp]
  00044	03 48 04	 add	 ecx, DWORD PTR [eax+4]
  00047	8b f4		 mov	 esi, esp
  00049	ff 15 00 00 00
	00		 call	 DWORD PTR __imp_?rdbuf@?$basic_ios@DU?$char_traits@D@std@@@std@@QBEPAV?$basic_streambuf@DU?$char_traits@D@std@@@2@XZ
  0004f	3b f4		 cmp	 esi, esp
  00051	e8 00 00 00 00	 call	 __RTC_CheckEsp
  00056	85 c0		 test	 eax, eax
  00058	74 4d		 je	 SHORT $LN1@Sentry_bas

; 101  : 				_Myostr.rdbuf()->_Lock();

  0005a	8b 45 f8	 mov	 eax, DWORD PTR _this$[ebp]
  0005d	8b 08		 mov	 ecx, DWORD PTR [eax]
  0005f	89 8d 30 ff ff
	ff		 mov	 DWORD PTR tv87[ebp], ecx
  00065	8b 95 30 ff ff
	ff		 mov	 edx, DWORD PTR tv87[ebp]
  0006b	8b 02		 mov	 eax, DWORD PTR [edx]
  0006d	8b 8d 30 ff ff
	ff		 mov	 ecx, DWORD PTR tv87[ebp]
  00073	03 48 04	 add	 ecx, DWORD PTR [eax+4]
  00076	8b f4		 mov	 esi, esp
  00078	ff 15 00 00 00
	00		 call	 DWORD PTR __imp_?rdbuf@?$basic_ios@DU?$char_traits@D@std@@@std@@QBEPAV?$basic_streambuf@DU?$char_traits@D@std@@@2@XZ
  0007e	3b f4		 cmp	 esi, esp
  00080	e8 00 00 00 00	 call	 __RTC_CheckEsp
  00085	89 85 2c ff ff
	ff		 mov	 DWORD PTR tv93[ebp], eax
  0008b	8b 8d 2c ff ff
	ff		 mov	 ecx, DWORD PTR tv93[ebp]
  00091	8b 11		 mov	 edx, DWORD PTR [ecx]
  00093	8b f4		 mov	 esi, esp
  00095	8b 8d 2c ff ff
	ff		 mov	 ecx, DWORD PTR tv93[ebp]
  0009b	8b 42 04	 mov	 eax, DWORD PTR [edx+4]
  0009e	ff d0		 call	 eax
  000a0	3b f4		 cmp	 esi, esp
  000a2	e8 00 00 00 00	 call	 __RTC_CheckEsp
$LN1@Sentry_bas:

; 102  : 			}

  000a7	8b 45 f8	 mov	 eax, DWORD PTR _this$[ebp]
  000aa	5f		 pop	 edi
  000ab	5e		 pop	 esi
  000ac	5b		 pop	 ebx
  000ad	81 c4 d4 00 00
	00		 add	 esp, 212		; 000000d4H
  000b3	3b ec		 cmp	 ebp, esp
  000b5	e8 00 00 00 00	 call	 __RTC_CheckEsp
  000ba	8b e5		 mov	 esp, ebp
  000bc	5d		 pop	 ebp
  000bd	c2 04 00	 ret	 4
??0_Sentry_base@?$basic_ostream@DU?$char_traits@D@std@@@std@@QAE@AAV12@@Z ENDP ; std::basic_ostream<char,std::char_traits<char> >::_Sentry_base::_Sentry_base
_TEXT	ENDS
; Function compile flags: /Odtp /RTCsu /ZI
; File c:\users\barronry\desktop\cs_third_year\third_year\cs3021 computer architecture ii\labs\tutorial 1\t1test\t1test\t1test.cpp
;	COMDAT _wmain
_TEXT	SEGMENT
_i$1 = -44						; size = 4
_i$2 = -32						; size = 4
_i$3 = -20						; size = 4
_i$4 = -8						; size = 4
_argc$ = 8						; size = 4
_argv$ = 12						; size = 4
_wmain	PROC						; COMDAT

; 75   : int _tmain(int argc, _TCHAR* argv[]) {

  00000	55		 push	 ebp
  00001	8b ec		 mov	 ebp, esp
  00003	81 ec f0 00 00
	00		 sub	 esp, 240		; 000000f0H
  00009	53		 push	 ebx
  0000a	56		 push	 esi
  0000b	57		 push	 edi
  0000c	8d bd 10 ff ff
	ff		 lea	 edi, DWORD PTR [ebp-240]
  00012	b9 3c 00 00 00	 mov	 ecx, 60			; 0000003cH
  00017	b8 cc cc cc cc	 mov	 eax, -858993460		; ccccccccH
  0001c	f3 ab		 rep stosd

; 76   : 
; 77   : 	min(1, 2, 2);

  0001e	6a 02		 push	 2
  00020	6a 02		 push	 2
  00022	6a 01		 push	 1
  00024	e8 00 00 00 00	 call	 _min
  00029	83 c4 0c	 add	 esp, 12			; 0000000cH

; 78   : 
; 79   : 	//
; 80   : 	// t1
; 81   : 	//
; 82   : 	check("g", g, 4);

  0002c	6a 04		 push	 4
  0002e	a1 00 00 00 00	 mov	 eax, DWORD PTR _g
  00033	50		 push	 eax
  00034	68 00 00 00 00	 push	 OFFSET ??_C@_01JEJKBAGA@g?$AA@
  00039	e8 00 00 00 00	 call	 ?check@@YAXPADHH@Z	; check
  0003e	83 c4 0c	 add	 esp, 12			; 0000000cH

; 83   : 
; 84   : 	check("min(1, 2, 3)", min(1, 2, 3), 1);

  00041	6a 01		 push	 1
  00043	6a 03		 push	 3
  00045	6a 02		 push	 2
  00047	6a 01		 push	 1
  00049	e8 00 00 00 00	 call	 _min
  0004e	83 c4 0c	 add	 esp, 12			; 0000000cH
  00051	50		 push	 eax
  00052	68 00 00 00 00	 push	 OFFSET ??_C@_0N@IFHDDOHF@min?$CI1?0?52?0?53?$CJ?$AA@
  00057	e8 00 00 00 00	 call	 ?check@@YAXPADHH@Z	; check
  0005c	83 c4 0c	 add	 esp, 12			; 0000000cH

; 85   : 	check("min(3, 1, 2)", min(3, 1, 2), 1);

  0005f	6a 01		 push	 1
  00061	6a 02		 push	 2
  00063	6a 01		 push	 1
  00065	6a 03		 push	 3
  00067	e8 00 00 00 00	 call	 _min
  0006c	83 c4 0c	 add	 esp, 12			; 0000000cH
  0006f	50		 push	 eax
  00070	68 00 00 00 00	 push	 OFFSET ??_C@_0N@CMNDAOGK@min?$CI3?0?51?0?52?$CJ?$AA@
  00075	e8 00 00 00 00	 call	 ?check@@YAXPADHH@Z	; check
  0007a	83 c4 0c	 add	 esp, 12			; 0000000cH

; 86   : 	check("min(2, 3, 1)", min(2, 3, 1), 1);

  0007d	6a 01		 push	 1
  0007f	6a 01		 push	 1
  00081	6a 03		 push	 3
  00083	6a 02		 push	 2
  00085	e8 00 00 00 00	 call	 _min
  0008a	83 c4 0c	 add	 esp, 12			; 0000000cH
  0008d	50		 push	 eax
  0008e	68 00 00 00 00	 push	 OFFSET ??_C@_0N@HECGAFHL@min?$CI2?0?53?0?51?$CJ?$AA@
  00093	e8 00 00 00 00	 call	 ?check@@YAXPADHH@Z	; check
  00098	83 c4 0c	 add	 esp, 12			; 0000000cH

; 87   : 	check("min(-1, -2, -3)", min(-1, -2, -3), -3);

  0009b	6a fd		 push	 -3			; fffffffdH
  0009d	6a fd		 push	 -3			; fffffffdH
  0009f	6a fe		 push	 -2			; fffffffeH
  000a1	6a ff		 push	 -1
  000a3	e8 00 00 00 00	 call	 _min
  000a8	83 c4 0c	 add	 esp, 12			; 0000000cH
  000ab	50		 push	 eax
  000ac	68 00 00 00 00	 push	 OFFSET ??_C@_0BA@NNMBNOIK@min?$CI?91?0?5?92?0?5?93?$CJ?$AA@
  000b1	e8 00 00 00 00	 call	 ?check@@YAXPADHH@Z	; check
  000b6	83 c4 0c	 add	 esp, 12			; 0000000cH

; 88   : 	check("min(-3, -1, -2)", min(-3, -1, -2), -3);

  000b9	6a fd		 push	 -3			; fffffffdH
  000bb	6a fe		 push	 -2			; fffffffeH
  000bd	6a ff		 push	 -1
  000bf	6a fd		 push	 -3			; fffffffdH
  000c1	e8 00 00 00 00	 call	 _min
  000c6	83 c4 0c	 add	 esp, 12			; 0000000cH
  000c9	50		 push	 eax
  000ca	68 00 00 00 00	 push	 OFFSET ??_C@_0BA@LFIHBHOB@min?$CI?93?0?5?91?0?5?92?$CJ?$AA@
  000cf	e8 00 00 00 00	 call	 ?check@@YAXPADHH@Z	; check
  000d4	83 c4 0c	 add	 esp, 12			; 0000000cH

; 89   : 	check("min(-2, -3, -1)", min(-2, -3, -1), -3);

  000d7	6a fd		 push	 -3			; fffffffdH
  000d9	6a ff		 push	 -1
  000db	6a fd		 push	 -3			; fffffffdH
  000dd	6a fe		 push	 -2			; fffffffeH
  000df	e8 00 00 00 00	 call	 _min
  000e4	83 c4 0c	 add	 esp, 12			; 0000000cH
  000e7	50		 push	 eax
  000e8	68 00 00 00 00	 push	 OFFSET ??_C@_0BA@OBNAGHFB@min?$CI?92?0?5?93?0?5?91?$CJ?$AA@
  000ed	e8 00 00 00 00	 call	 ?check@@YAXPADHH@Z	; check
  000f2	83 c4 0c	 add	 esp, 12			; 0000000cH

; 90   : 	check("min(-1, 2, 3)", min(-1, 2, 3), -1);

  000f5	6a ff		 push	 -1
  000f7	6a 03		 push	 3
  000f9	6a 02		 push	 2
  000fb	6a ff		 push	 -1
  000fd	e8 00 00 00 00	 call	 _min
  00102	83 c4 0c	 add	 esp, 12			; 0000000cH
  00105	50		 push	 eax
  00106	68 00 00 00 00	 push	 OFFSET ??_C@_0O@MGOGFLD@min?$CI?91?0?52?0?53?$CJ?$AA@
  0010b	e8 00 00 00 00	 call	 ?check@@YAXPADHH@Z	; check
  00110	83 c4 0c	 add	 esp, 12			; 0000000cH

; 91   : 	check("min(3, -1, 2)", min(3, -1, 2), -1);

  00113	6a ff		 push	 -1
  00115	6a 02		 push	 2
  00117	6a ff		 push	 -1
  00119	6a 03		 push	 3
  0011b	e8 00 00 00 00	 call	 _min
  00120	83 c4 0c	 add	 esp, 12			; 0000000cH
  00123	50		 push	 eax
  00124	68 00 00 00 00	 push	 OFFSET ??_C@_0O@NJKIBNNI@min?$CI3?0?5?91?0?52?$CJ?$AA@
  00129	e8 00 00 00 00	 call	 ?check@@YAXPADHH@Z	; check
  0012e	83 c4 0c	 add	 esp, 12			; 0000000cH

; 92   : 	check("min(2, 3, -1)", min(2, 3, -1), -1);

  00131	6a ff		 push	 -1
  00133	6a ff		 push	 -1
  00135	6a 03		 push	 3
  00137	6a 02		 push	 2
  00139	e8 00 00 00 00	 call	 _min
  0013e	83 c4 0c	 add	 esp, 12			; 0000000cH
  00141	50		 push	 eax
  00142	68 00 00 00 00	 push	 OFFSET ??_C@_0O@ILBPALLF@min?$CI2?0?53?0?5?91?$CJ?$AA@
  00147	e8 00 00 00 00	 call	 ?check@@YAXPADHH@Z	; check
  0014c	83 c4 0c	 add	 esp, 12			; 0000000cH

; 93   : 
; 94   : 	check("p(0, 1, 2, 3)", p(0, 1, 2, 3), 0);

  0014f	6a 00		 push	 0
  00151	6a 03		 push	 3
  00153	6a 02		 push	 2
  00155	6a 01		 push	 1
  00157	6a 00		 push	 0
  00159	e8 00 00 00 00	 call	 _p
  0015e	83 c4 10	 add	 esp, 16			; 00000010H
  00161	50		 push	 eax
  00162	68 00 00 00 00	 push	 OFFSET ??_C@_0O@CNFABAIK@p?$CI0?0?51?0?52?0?53?$CJ?$AA@
  00167	e8 00 00 00 00	 call	 ?check@@YAXPADHH@Z	; check
  0016c	83 c4 0c	 add	 esp, 12			; 0000000cH

; 95   : 	check("p(5, 6, 7, 8)", p(5, 6, 7, 8), 4);

  0016f	6a 04		 push	 4
  00171	6a 08		 push	 8
  00173	6a 07		 push	 7
  00175	6a 06		 push	 6
  00177	6a 05		 push	 5
  00179	e8 00 00 00 00	 call	 _p
  0017e	83 c4 10	 add	 esp, 16			; 00000010H
  00181	50		 push	 eax
  00182	68 00 00 00 00	 push	 OFFSET ??_C@_0O@INAKHEAB@p?$CI5?0?56?0?57?0?58?$CJ?$AA@
  00187	e8 00 00 00 00	 call	 ?check@@YAXPADHH@Z	; check
  0018c	83 c4 0c	 add	 esp, 12			; 0000000cH

; 96   : 	check("p(3, 2, 1, 0)", p(3, 2, 1, 0), 0);

  0018f	6a 00		 push	 0
  00191	6a 00		 push	 0
  00193	6a 01		 push	 1
  00195	6a 02		 push	 2
  00197	6a 03		 push	 3
  00199	e8 00 00 00 00	 call	 _p
  0019e	83 c4 10	 add	 esp, 16			; 00000010H
  001a1	50		 push	 eax
  001a2	68 00 00 00 00	 push	 OFFSET ??_C@_0O@OHJBDCEI@p?$CI3?0?52?0?51?0?50?$CJ?$AA@
  001a7	e8 00 00 00 00	 call	 ?check@@YAXPADHH@Z	; check
  001ac	83 c4 0c	 add	 esp, 12			; 0000000cH

; 97   : 	check("p(8, 7, 6, 5)", p(8, 7, 6, 5), 4);

  001af	6a 04		 push	 4
  001b1	6a 05		 push	 5
  001b3	6a 06		 push	 6
  001b5	6a 07		 push	 7
  001b7	6a 08		 push	 8
  001b9	e8 00 00 00 00	 call	 _p
  001be	83 c4 10	 add	 esp, 16			; 00000010H
  001c1	50		 push	 eax
  001c2	68 00 00 00 00	 push	 OFFSET ??_C@_0O@MHFKCBFK@p?$CI8?0?57?0?56?0?55?$CJ?$AA@
  001c7	e8 00 00 00 00	 call	 ?check@@YAXPADHH@Z	; check
  001cc	83 c4 0c	 add	 esp, 12			; 0000000cH

; 98   : 
; 99   : 	check("gcd(14, 21)", gcd(14, 21), 7);

  001cf	6a 07		 push	 7
  001d1	6a 15		 push	 21			; 00000015H
  001d3	6a 0e		 push	 14			; 0000000eH
  001d5	e8 00 00 00 00	 call	 _gcd
  001da	83 c4 08	 add	 esp, 8
  001dd	50		 push	 eax
  001de	68 00 00 00 00	 push	 OFFSET ??_C@_0M@GPNKNABC@gcd?$CI14?0?521?$CJ?$AA@
  001e3	e8 00 00 00 00	 call	 ?check@@YAXPADHH@Z	; check
  001e8	83 c4 0c	 add	 esp, 12			; 0000000cH

; 100  : 	check("gcd(1406700, 164115)", gcd(1406700, 164115), 23445);

  001eb	68 95 5b 00 00	 push	 23445			; 00005b95H
  001f0	68 13 81 02 00	 push	 164115			; 00028113H
  001f5	68 ec 76 15 00	 push	 1406700			; 001576ecH
  001fa	e8 00 00 00 00	 call	 _gcd
  001ff	83 c4 08	 add	 esp, 8
  00202	50		 push	 eax
  00203	68 00 00 00 00	 push	 OFFSET ??_C@_0BF@MGHDOIID@gcd?$CI1406700?0?5164115?$CJ?$AA@
  00208	e8 00 00 00 00	 call	 ?check@@YAXPADHH@Z	; check
  0020d	83 c4 0c	 add	 esp, 12			; 0000000cH

; 101  : 
; 102  : 	cout << endl;

  00210	8b f4		 mov	 esi, esp
  00212	68 00 00 00 00	 push	 OFFSET ??$endl@DU?$char_traits@D@std@@@std@@YAAAV?$basic_ostream@DU?$char_traits@D@std@@@0@AAV10@@Z ; std::endl<char,std::char_traits<char> >
  00217	8b 0d 00 00 00
	00		 mov	 ecx, DWORD PTR __imp_?cout@std@@3V?$basic_ostream@DU?$char_traits@D@std@@@1@A
  0021d	ff 15 00 00 00
	00		 call	 DWORD PTR __imp_??6?$basic_ostream@DU?$char_traits@D@std@@@std@@QAEAAV01@P6AAAV01@AAV01@@Z@Z
  00223	3b f4		 cmp	 esi, esp
  00225	e8 00 00 00 00	 call	 __RTC_CheckEsp

; 103  : 
; 104  : 	//
; 105  : 	// fib: C++
; 106  : 	//
; 107  : 	for (int i = -1; i < 20; i++)

  0022a	c7 45 f8 ff ff
	ff ff		 mov	 DWORD PTR _i$4[ebp], -1
  00231	eb 09		 jmp	 SHORT $LN4@wmain
$LN2@wmain:
  00233	8b 45 f8	 mov	 eax, DWORD PTR _i$4[ebp]
  00236	83 c0 01	 add	 eax, 1
  00239	89 45 f8	 mov	 DWORD PTR _i$4[ebp], eax
$LN4@wmain:
  0023c	83 7d f8 14	 cmp	 DWORD PTR _i$4[ebp], 20	; 00000014H
  00240	7d 32		 jge	 SHORT $LN3@wmain

; 108  : 		cout << fib(i) << " ";

  00242	68 00 00 00 00	 push	 OFFSET ??_C@_01CLKCMJKC@?5?$AA@
  00247	8b 45 f8	 mov	 eax, DWORD PTR _i$4[ebp]
  0024a	50		 push	 eax
  0024b	e8 00 00 00 00	 call	 ?fib@@YAHH@Z		; fib
  00250	83 c4 04	 add	 esp, 4
  00253	8b f4		 mov	 esi, esp
  00255	50		 push	 eax
  00256	8b 0d 00 00 00
	00		 mov	 ecx, DWORD PTR __imp_?cout@std@@3V?$basic_ostream@DU?$char_traits@D@std@@@1@A
  0025c	ff 15 00 00 00
	00		 call	 DWORD PTR __imp_??6?$basic_ostream@DU?$char_traits@D@std@@@std@@QAEAAV01@H@Z
  00262	3b f4		 cmp	 esi, esp
  00264	e8 00 00 00 00	 call	 __RTC_CheckEsp
  00269	50		 push	 eax
  0026a	e8 00 00 00 00	 call	 ??$?6U?$char_traits@D@std@@@std@@YAAAV?$basic_ostream@DU?$char_traits@D@std@@@0@AAV10@PBD@Z ; std::operator<<<std::char_traits<char> >
  0026f	83 c4 08	 add	 esp, 8
  00272	eb bf		 jmp	 SHORT $LN2@wmain
$LN3@wmain:

; 109  : 	cout << endl;

  00274	8b f4		 mov	 esi, esp
  00276	68 00 00 00 00	 push	 OFFSET ??$endl@DU?$char_traits@D@std@@@std@@YAAAV?$basic_ostream@DU?$char_traits@D@std@@@0@AAV10@@Z ; std::endl<char,std::char_traits<char> >
  0027b	8b 0d 00 00 00
	00		 mov	 ecx, DWORD PTR __imp_?cout@std@@3V?$basic_ostream@DU?$char_traits@D@std@@@1@A
  00281	ff 15 00 00 00
	00		 call	 DWORD PTR __imp_??6?$basic_ostream@DU?$char_traits@D@std@@@std@@QAEAAV01@P6AAAV01@AAV01@@Z@Z
  00287	3b f4		 cmp	 esi, esp
  00289	e8 00 00 00 00	 call	 __RTC_CheckEsp

; 110  : 
; 111  : 	//
; 112  : 	// fib: mixed C++ and assmbly language
; 113  : 	//
; 114  : 	for (int i = -1; i < 20; i++)

  0028e	c7 45 ec ff ff
	ff ff		 mov	 DWORD PTR _i$3[ebp], -1
  00295	eb 09		 jmp	 SHORT $LN7@wmain
$LN5@wmain:
  00297	8b 45 ec	 mov	 eax, DWORD PTR _i$3[ebp]
  0029a	83 c0 01	 add	 eax, 1
  0029d	89 45 ec	 mov	 DWORD PTR _i$3[ebp], eax
$LN7@wmain:
  002a0	83 7d ec 14	 cmp	 DWORD PTR _i$3[ebp], 20	; 00000014H
  002a4	7d 32		 jge	 SHORT $LN6@wmain

; 115  : 		cout << fib_IA32(i) << " ";

  002a6	68 00 00 00 00	 push	 OFFSET ??_C@_01CLKCMJKC@?5?$AA@
  002ab	8b 45 ec	 mov	 eax, DWORD PTR _i$3[ebp]
  002ae	50		 push	 eax
  002af	e8 00 00 00 00	 call	 ?fib_IA32@@YAHH@Z	; fib_IA32
  002b4	83 c4 04	 add	 esp, 4
  002b7	8b f4		 mov	 esi, esp
  002b9	50		 push	 eax
  002ba	8b 0d 00 00 00
	00		 mov	 ecx, DWORD PTR __imp_?cout@std@@3V?$basic_ostream@DU?$char_traits@D@std@@@1@A
  002c0	ff 15 00 00 00
	00		 call	 DWORD PTR __imp_??6?$basic_ostream@DU?$char_traits@D@std@@@std@@QAEAAV01@H@Z
  002c6	3b f4		 cmp	 esi, esp
  002c8	e8 00 00 00 00	 call	 __RTC_CheckEsp
  002cd	50		 push	 eax
  002ce	e8 00 00 00 00	 call	 ??$?6U?$char_traits@D@std@@@std@@YAAAV?$basic_ostream@DU?$char_traits@D@std@@@0@AAV10@PBD@Z ; std::operator<<<std::char_traits<char> >
  002d3	83 c4 08	 add	 esp, 8
  002d6	eb bf		 jmp	 SHORT $LN5@wmain
$LN6@wmain:

; 116  : 	cout << endl;

  002d8	8b f4		 mov	 esi, esp
  002da	68 00 00 00 00	 push	 OFFSET ??$endl@DU?$char_traits@D@std@@@std@@YAAAV?$basic_ostream@DU?$char_traits@D@std@@@0@AAV10@@Z ; std::endl<char,std::char_traits<char> >
  002df	8b 0d 00 00 00
	00		 mov	 ecx, DWORD PTR __imp_?cout@std@@3V?$basic_ostream@DU?$char_traits@D@std@@@1@A
  002e5	ff 15 00 00 00
	00		 call	 DWORD PTR __imp_??6?$basic_ostream@DU?$char_traits@D@std@@@std@@QAEAAV01@P6AAAV01@AAV01@@Z@Z
  002eb	3b f4		 cmp	 esi, esp
  002ed	e8 00 00 00 00	 call	 __RTC_CheckEsp

; 117  : 
; 118  : 	//
; 119  : 	// fib: IA32 assembly language  unoptimised (DEBUG version)
; 120  : 	//
; 121  : 	fib_IA32a(10);

  002f2	6a 0a		 push	 10			; 0000000aH
  002f4	e8 00 00 00 00	 call	 _fib_IA32a
  002f9	83 c4 04	 add	 esp, 4

; 122  : 	for (int i = -1; i < 20; i++)

  002fc	c7 45 e0 ff ff
	ff ff		 mov	 DWORD PTR _i$2[ebp], -1
  00303	eb 09		 jmp	 SHORT $LN10@wmain
$LN8@wmain:
  00305	8b 45 e0	 mov	 eax, DWORD PTR _i$2[ebp]
  00308	83 c0 01	 add	 eax, 1
  0030b	89 45 e0	 mov	 DWORD PTR _i$2[ebp], eax
$LN10@wmain:
  0030e	83 7d e0 14	 cmp	 DWORD PTR _i$2[ebp], 20	; 00000014H
  00312	7d 32		 jge	 SHORT $LN9@wmain

; 123  : 		cout << fib_IA32a(i) << " ";

  00314	68 00 00 00 00	 push	 OFFSET ??_C@_01CLKCMJKC@?5?$AA@
  00319	8b 45 e0	 mov	 eax, DWORD PTR _i$2[ebp]
  0031c	50		 push	 eax
  0031d	e8 00 00 00 00	 call	 _fib_IA32a
  00322	83 c4 04	 add	 esp, 4
  00325	8b f4		 mov	 esi, esp
  00327	50		 push	 eax
  00328	8b 0d 00 00 00
	00		 mov	 ecx, DWORD PTR __imp_?cout@std@@3V?$basic_ostream@DU?$char_traits@D@std@@@1@A
  0032e	ff 15 00 00 00
	00		 call	 DWORD PTR __imp_??6?$basic_ostream@DU?$char_traits@D@std@@@std@@QAEAAV01@H@Z
  00334	3b f4		 cmp	 esi, esp
  00336	e8 00 00 00 00	 call	 __RTC_CheckEsp
  0033b	50		 push	 eax
  0033c	e8 00 00 00 00	 call	 ??$?6U?$char_traits@D@std@@@std@@YAAAV?$basic_ostream@DU?$char_traits@D@std@@@0@AAV10@PBD@Z ; std::operator<<<std::char_traits<char> >
  00341	83 c4 08	 add	 esp, 8
  00344	eb bf		 jmp	 SHORT $LN8@wmain
$LN9@wmain:

; 124  : 	cout << endl;

  00346	8b f4		 mov	 esi, esp
  00348	68 00 00 00 00	 push	 OFFSET ??$endl@DU?$char_traits@D@std@@@std@@YAAAV?$basic_ostream@DU?$char_traits@D@std@@@0@AAV10@@Z ; std::endl<char,std::char_traits<char> >
  0034d	8b 0d 00 00 00
	00		 mov	 ecx, DWORD PTR __imp_?cout@std@@3V?$basic_ostream@DU?$char_traits@D@std@@@1@A
  00353	ff 15 00 00 00
	00		 call	 DWORD PTR __imp_??6?$basic_ostream@DU?$char_traits@D@std@@@std@@QAEAAV01@P6AAAV01@AAV01@@Z@Z
  00359	3b f4		 cmp	 esi, esp
  0035b	e8 00 00 00 00	 call	 __RTC_CheckEsp

; 125  : 
; 126  : 	//
; 127  : 	// fib: IA32 assembly language optimised (RELEASE version)
; 128  : 	//
; 129  : 	for (int i = -1; i < 20; i++)

  00360	c7 45 d4 ff ff
	ff ff		 mov	 DWORD PTR _i$1[ebp], -1
  00367	eb 09		 jmp	 SHORT $LN13@wmain
$LN11@wmain:
  00369	8b 45 d4	 mov	 eax, DWORD PTR _i$1[ebp]
  0036c	83 c0 01	 add	 eax, 1
  0036f	89 45 d4	 mov	 DWORD PTR _i$1[ebp], eax
$LN13@wmain:
  00372	83 7d d4 14	 cmp	 DWORD PTR _i$1[ebp], 20	; 00000014H
  00376	7d 32		 jge	 SHORT $LN12@wmain

; 130  : 		cout << fib_IA32b(i) << " ";

  00378	68 00 00 00 00	 push	 OFFSET ??_C@_01CLKCMJKC@?5?$AA@
  0037d	8b 45 d4	 mov	 eax, DWORD PTR _i$1[ebp]
  00380	50		 push	 eax
  00381	e8 00 00 00 00	 call	 _fib_IA32b
  00386	83 c4 04	 add	 esp, 4
  00389	8b f4		 mov	 esi, esp
  0038b	50		 push	 eax
  0038c	8b 0d 00 00 00
	00		 mov	 ecx, DWORD PTR __imp_?cout@std@@3V?$basic_ostream@DU?$char_traits@D@std@@@1@A
  00392	ff 15 00 00 00
	00		 call	 DWORD PTR __imp_??6?$basic_ostream@DU?$char_traits@D@std@@@std@@QAEAAV01@H@Z
  00398	3b f4		 cmp	 esi, esp
  0039a	e8 00 00 00 00	 call	 __RTC_CheckEsp
  0039f	50		 push	 eax
  003a0	e8 00 00 00 00	 call	 ??$?6U?$char_traits@D@std@@@std@@YAAAV?$basic_ostream@DU?$char_traits@D@std@@@0@AAV10@PBD@Z ; std::operator<<<std::char_traits<char> >
  003a5	83 c4 08	 add	 esp, 8
  003a8	eb bf		 jmp	 SHORT $LN11@wmain
$LN12@wmain:

; 131  : 	cout << endl;

  003aa	8b f4		 mov	 esi, esp
  003ac	68 00 00 00 00	 push	 OFFSET ??$endl@DU?$char_traits@D@std@@@std@@YAAAV?$basic_ostream@DU?$char_traits@D@std@@@0@AAV10@@Z ; std::endl<char,std::char_traits<char> >
  003b1	8b 0d 00 00 00
	00		 mov	 ecx, DWORD PTR __imp_?cout@std@@3V?$basic_ostream@DU?$char_traits@D@std@@@1@A
  003b7	ff 15 00 00 00
	00		 call	 DWORD PTR __imp_??6?$basic_ostream@DU?$char_traits@D@std@@@std@@QAEAAV01@P6AAAV01@AAV01@@Z@Z
  003bd	3b f4		 cmp	 esi, esp
  003bf	e8 00 00 00 00	 call	 __RTC_CheckEsp

; 132  : 
; 133  : 	_getch();

  003c4	8b f4		 mov	 esi, esp
  003c6	ff 15 00 00 00
	00		 call	 DWORD PTR __imp___getch
  003cc	3b f4		 cmp	 esi, esp
  003ce	e8 00 00 00 00	 call	 __RTC_CheckEsp

; 134  : 
; 135  : 
; 136  : 	return 0;

  003d3	33 c0		 xor	 eax, eax

; 137  : }

  003d5	5f		 pop	 edi
  003d6	5e		 pop	 esi
  003d7	5b		 pop	 ebx
  003d8	81 c4 f0 00 00
	00		 add	 esp, 240		; 000000f0H
  003de	3b ec		 cmp	 ebp, esp
  003e0	e8 00 00 00 00	 call	 __RTC_CheckEsp
  003e5	8b e5		 mov	 esp, ebp
  003e7	5d		 pop	 ebp
  003e8	c3		 ret	 0
_wmain	ENDP
_TEXT	ENDS
; Function compile flags: /Odtp /RTCsu /ZI
; File c:\program files (x86)\microsoft visual studio\2017\enterprise\vc\tools\msvc\14.10.25017\include\ostream
;	COMDAT ??$endl@DU?$char_traits@D@std@@@std@@YAAAV?$basic_ostream@DU?$char_traits@D@std@@@0@AAV10@@Z
_TEXT	SEGMENT
__Ostr$ = 8						; size = 4
??$endl@DU?$char_traits@D@std@@@std@@YAAAV?$basic_ostream@DU?$char_traits@D@std@@@0@AAV10@@Z PROC ; std::endl<char,std::char_traits<char> >, COMDAT

; 983  : 	{	// insert newline and flush stream

  00000	55		 push	 ebp
  00001	8b ec		 mov	 ebp, esp
  00003	81 ec c0 00 00
	00		 sub	 esp, 192		; 000000c0H
  00009	53		 push	 ebx
  0000a	56		 push	 esi
  0000b	57		 push	 edi
  0000c	8d bd 40 ff ff
	ff		 lea	 edi, DWORD PTR [ebp-192]
  00012	b9 30 00 00 00	 mov	 ecx, 48			; 00000030H
  00017	b8 cc cc cc cc	 mov	 eax, -858993460		; ccccccccH
  0001c	f3 ab		 rep stosd

; 984  : 	_Ostr.put(_Ostr.widen('\n'));

  0001e	8b f4		 mov	 esi, esp
  00020	6a 0a		 push	 10			; 0000000aH
  00022	8b 45 08	 mov	 eax, DWORD PTR __Ostr$[ebp]
  00025	8b 08		 mov	 ecx, DWORD PTR [eax]
  00027	8b 55 08	 mov	 edx, DWORD PTR __Ostr$[ebp]
  0002a	03 51 04	 add	 edx, DWORD PTR [ecx+4]
  0002d	8b ca		 mov	 ecx, edx
  0002f	ff 15 00 00 00
	00		 call	 DWORD PTR __imp_?widen@?$basic_ios@DU?$char_traits@D@std@@@std@@QBEDD@Z
  00035	3b f4		 cmp	 esi, esp
  00037	e8 00 00 00 00	 call	 __RTC_CheckEsp
  0003c	8b f4		 mov	 esi, esp
  0003e	0f b6 c0	 movzx	 eax, al
  00041	50		 push	 eax
  00042	8b 4d 08	 mov	 ecx, DWORD PTR __Ostr$[ebp]
  00045	ff 15 00 00 00
	00		 call	 DWORD PTR __imp_?put@?$basic_ostream@DU?$char_traits@D@std@@@std@@QAEAAV12@D@Z
  0004b	3b f4		 cmp	 esi, esp
  0004d	e8 00 00 00 00	 call	 __RTC_CheckEsp

; 985  : 	_Ostr.flush();

  00052	8b f4		 mov	 esi, esp
  00054	8b 4d 08	 mov	 ecx, DWORD PTR __Ostr$[ebp]
  00057	ff 15 00 00 00
	00		 call	 DWORD PTR __imp_?flush@?$basic_ostream@DU?$char_traits@D@std@@@std@@QAEAAV12@XZ
  0005d	3b f4		 cmp	 esi, esp
  0005f	e8 00 00 00 00	 call	 __RTC_CheckEsp

; 986  : 	return (_Ostr);

  00064	8b 45 08	 mov	 eax, DWORD PTR __Ostr$[ebp]

; 987  : 	}

  00067	5f		 pop	 edi
  00068	5e		 pop	 esi
  00069	5b		 pop	 ebx
  0006a	81 c4 c0 00 00
	00		 add	 esp, 192		; 000000c0H
  00070	3b ec		 cmp	 ebp, esp
  00072	e8 00 00 00 00	 call	 __RTC_CheckEsp
  00077	8b e5		 mov	 esp, ebp
  00079	5d		 pop	 ebp
  0007a	c3		 ret	 0
??$endl@DU?$char_traits@D@std@@@std@@YAAAV?$basic_ostream@DU?$char_traits@D@std@@@0@AAV10@@Z ENDP ; std::endl<char,std::char_traits<char> >
_TEXT	ENDS
; Function compile flags: /Odtp /RTCsu /ZI
; File c:\program files (x86)\microsoft visual studio\2017\enterprise\vc\tools\msvc\14.10.25017\include\ostream
;	COMDAT ??$?6U?$char_traits@D@std@@@std@@YAAAV?$basic_ostream@DU?$char_traits@D@std@@@0@AAV10@PBD@Z
_TEXT	SEGMENT
tv135 = -352						; size = 8
tv342 = -344						; size = 8
tv290 = -340						; size = 4
tv287 = -340						; size = 8
tv285 = -340						; size = 4
tv328 = -336						; size = 8
tv289 = -336						; size = 4
tv284 = -336						; size = 4
tv286 = -332						; size = 4
tv137 = -332						; size = 4
tv288 = -329						; size = 1
tv283 = -329						; size = 1
$T2 = -324						; size = 4
$T3 = -312						; size = 4
$T4 = -300						; size = 4
$T5 = -288						; size = 4
$T6 = -276						; size = 4
__Ok$ = -72						; size = 8
__Pad$ = -56						; size = 8
__Count$ = -40						; size = 8
__State$ = -24						; size = 4
__$EHRec$ = -16						; size = 16
__Ostr$ = 8						; size = 4
__Val$ = 12						; size = 4
??$?6U?$char_traits@D@std@@@std@@YAAAV?$basic_ostream@DU?$char_traits@D@std@@@0@AAV10@PBD@Z PROC ; std::operator<<<std::char_traits<char> >, COMDAT

; 772  : 	{	// insert NTBS into char stream

  00000	55		 push	 ebp
  00001	8b ec		 mov	 ebp, esp
  00003	6a ff		 push	 -1
  00005	68 00 00 00 00	 push	 __ehhandler$??$?6U?$char_traits@D@std@@@std@@YAAAV?$basic_ostream@DU?$char_traits@D@std@@@0@AAV10@PBD@Z
  0000a	64 a1 00 00 00
	00		 mov	 eax, DWORD PTR fs:0
  00010	50		 push	 eax
  00011	51		 push	 ecx
  00012	81 ec 50 01 00
	00		 sub	 esp, 336		; 00000150H
  00018	53		 push	 ebx
  00019	56		 push	 esi
  0001a	57		 push	 edi
  0001b	8d bd a0 fe ff
	ff		 lea	 edi, DWORD PTR [ebp-352]
  00021	b9 54 00 00 00	 mov	 ecx, 84			; 00000054H
  00026	b8 cc cc cc cc	 mov	 eax, -858993460		; ccccccccH
  0002b	f3 ab		 rep stosd
  0002d	a1 00 00 00 00	 mov	 eax, DWORD PTR ___security_cookie
  00032	33 c5		 xor	 eax, ebp
  00034	50		 push	 eax
  00035	8d 45 f4	 lea	 eax, DWORD PTR __$EHRec$[ebp+4]
  00038	64 a3 00 00 00
	00		 mov	 DWORD PTR fs:0, eax
  0003e	89 65 f0	 mov	 DWORD PTR __$EHRec$[ebp], esp

; 773  : 	typedef char _Elem;
; 774  : 	typedef basic_ostream<_Elem, _Traits> _Myos;
; 775  : 	ios_base::iostate _State = ios_base::goodbit;

  00041	c7 45 e8 00 00
	00 00		 mov	 DWORD PTR __State$[ebp], 0

; 776  : 	streamsize _Count = (streamsize)_Traits::length(_Val);	// may overflow

  00048	8b 45 0c	 mov	 eax, DWORD PTR __Val$[ebp]
  0004b	50		 push	 eax
  0004c	e8 00 00 00 00	 call	 ?length@?$char_traits@D@std@@SAIQBD@Z ; std::char_traits<char>::length
  00051	83 c4 04	 add	 esp, 4
  00054	33 c9		 xor	 ecx, ecx
  00056	89 45 d8	 mov	 DWORD PTR __Count$[ebp], eax
  00059	89 4d dc	 mov	 DWORD PTR __Count$[ebp+4], ecx

; 777  : 	streamsize _Pad = _Ostr.width() <= 0 || _Ostr.width() <= _Count

  0005c	8b 45 08	 mov	 eax, DWORD PTR __Ostr$[ebp]
  0005f	8b 08		 mov	 ecx, DWORD PTR [eax]
  00061	8b 55 08	 mov	 edx, DWORD PTR __Ostr$[ebp]
  00064	03 51 04	 add	 edx, DWORD PTR [ecx+4]
  00067	8b f4		 mov	 esi, esp
  00069	8b ca		 mov	 ecx, edx
  0006b	ff 15 00 00 00
	00		 call	 DWORD PTR __imp_?width@ios_base@std@@QBE_JXZ
  00071	3b f4		 cmp	 esi, esp
  00073	e8 00 00 00 00	 call	 __RTC_CheckEsp
  00078	89 85 b0 fe ff
	ff		 mov	 DWORD PTR tv328[ebp], eax
  0007e	89 95 b4 fe ff
	ff		 mov	 DWORD PTR tv328[ebp+4], edx
  00084	83 bd b4 fe ff
	ff 00		 cmp	 DWORD PTR tv328[ebp+4], 0
  0008b	7c 79		 jl	 SHORT $LN17@operator
  0008d	7f 09		 jg	 SHORT $LN24@operator
  0008f	83 bd b0 fe ff
	ff 00		 cmp	 DWORD PTR tv328[ebp], 0
  00096	76 6e		 jbe	 SHORT $LN17@operator
$LN24@operator:
  00098	8b 45 08	 mov	 eax, DWORD PTR __Ostr$[ebp]
  0009b	8b 08		 mov	 ecx, DWORD PTR [eax]
  0009d	8b 55 08	 mov	 edx, DWORD PTR __Ostr$[ebp]
  000a0	03 51 04	 add	 edx, DWORD PTR [ecx+4]
  000a3	8b f4		 mov	 esi, esp
  000a5	8b ca		 mov	 ecx, edx
  000a7	ff 15 00 00 00
	00		 call	 DWORD PTR __imp_?width@ios_base@std@@QBE_JXZ
  000ad	3b f4		 cmp	 esi, esp
  000af	e8 00 00 00 00	 call	 __RTC_CheckEsp
  000b4	89 85 a8 fe ff
	ff		 mov	 DWORD PTR tv342[ebp], eax
  000ba	89 95 ac fe ff
	ff		 mov	 DWORD PTR tv342[ebp+4], edx
  000c0	8b 85 ac fe ff
	ff		 mov	 eax, DWORD PTR tv342[ebp+4]
  000c6	3b 45 dc	 cmp	 eax, DWORD PTR __Count$[ebp+4]
  000c9	7c 3b		 jl	 SHORT $LN17@operator
  000cb	7f 0b		 jg	 SHORT $LN25@operator
  000cd	8b 8d a8 fe ff
	ff		 mov	 ecx, DWORD PTR tv342[ebp]
  000d3	3b 4d d8	 cmp	 ecx, DWORD PTR __Count$[ebp]
  000d6	76 2e		 jbe	 SHORT $LN17@operator
$LN25@operator:
  000d8	8b 55 08	 mov	 edx, DWORD PTR __Ostr$[ebp]
  000db	8b 02		 mov	 eax, DWORD PTR [edx]
  000dd	8b 4d 08	 mov	 ecx, DWORD PTR __Ostr$[ebp]
  000e0	03 48 04	 add	 ecx, DWORD PTR [eax+4]
  000e3	8b f4		 mov	 esi, esp
  000e5	ff 15 00 00 00
	00		 call	 DWORD PTR __imp_?width@ios_base@std@@QBE_JXZ
  000eb	3b f4		 cmp	 esi, esp
  000ed	e8 00 00 00 00	 call	 __RTC_CheckEsp
  000f2	2b 45 d8	 sub	 eax, DWORD PTR __Count$[ebp]
  000f5	1b 55 dc	 sbb	 edx, DWORD PTR __Count$[ebp+4]
  000f8	89 85 a0 fe ff
	ff		 mov	 DWORD PTR tv135[ebp], eax
  000fe	89 95 a4 fe ff
	ff		 mov	 DWORD PTR tv135[ebp+4], edx
  00104	eb 0b		 jmp	 SHORT $LN18@operator
$LN17@operator:
  00106	0f 57 c0	 xorps	 xmm0, xmm0
  00109	66 0f 13 85 a0
	fe ff ff	 movlpd	 QWORD PTR tv135[ebp], xmm0
$LN18@operator:
  00111	8b 8d a0 fe ff
	ff		 mov	 ecx, DWORD PTR tv135[ebp]
  00117	89 4d c8	 mov	 DWORD PTR __Pad$[ebp], ecx
  0011a	8b 95 a4 fe ff
	ff		 mov	 edx, DWORD PTR tv135[ebp+4]
  00120	89 55 cc	 mov	 DWORD PTR __Pad$[ebp+4], edx

; 778  : 		? 0 : _Ostr.width() - _Count;
; 779  : 	const typename _Myos::sentry _Ok(_Ostr);

  00123	8b 45 08	 mov	 eax, DWORD PTR __Ostr$[ebp]
  00126	50		 push	 eax
  00127	8d 4d b8	 lea	 ecx, DWORD PTR __Ok$[ebp]
  0012a	e8 00 00 00 00	 call	 ??0sentry@?$basic_ostream@DU?$char_traits@D@std@@@std@@QAE@AAV12@@Z ; std::basic_ostream<char,std::char_traits<char> >::sentry::sentry
  0012f	c7 45 fc 00 00
	00 00		 mov	 DWORD PTR __$EHRec$[ebp+12], 0

; 780  : 
; 781  : 	if (!_Ok)

  00136	8d 4d b8	 lea	 ecx, DWORD PTR __Ok$[ebp]
  00139	e8 00 00 00 00	 call	 ??Bsentry@?$basic_ostream@DU?$char_traits@D@std@@@std@@QBE_NXZ ; std::basic_ostream<char,std::char_traits<char> >::sentry::operator bool
  0013e	0f b6 c0	 movzx	 eax, al
  00141	85 c0		 test	 eax, eax
  00143	75 0e		 jne	 SHORT $LN8@operator

; 782  : 		_State |= ios_base::badbit;

  00145	8b 45 e8	 mov	 eax, DWORD PTR __State$[ebp]
  00148	83 c8 04	 or	 eax, 4
  0014b	89 45 e8	 mov	 DWORD PTR __State$[ebp], eax

; 783  : 	else

  0014e	e9 ba 02 00 00	 jmp	 $LN9@operator
$LN8@operator:

; 784  : 		{	// state okay, insert
; 785  : 		_TRY_IO_BEGIN

  00153	c6 45 fc 01	 mov	 BYTE PTR __$EHRec$[ebp+12], 1

; 786  : 		if ((_Ostr.flags() & ios_base::adjustfield) != ios_base::left)

  00157	8b 45 08	 mov	 eax, DWORD PTR __Ostr$[ebp]
  0015a	8b 08		 mov	 ecx, DWORD PTR [eax]
  0015c	8b 55 08	 mov	 edx, DWORD PTR __Ostr$[ebp]
  0015f	03 51 04	 add	 edx, DWORD PTR [ecx+4]
  00162	8b f4		 mov	 esi, esp
  00164	8b ca		 mov	 ecx, edx
  00166	ff 15 00 00 00
	00		 call	 DWORD PTR __imp_?flags@ios_base@std@@QBEHXZ
  0016c	3b f4		 cmp	 esi, esp
  0016e	e8 00 00 00 00	 call	 __RTC_CheckEsp
  00173	89 85 b4 fe ff
	ff		 mov	 DWORD PTR tv137[ebp], eax
  00179	8b 85 b4 fe ff
	ff		 mov	 eax, DWORD PTR tv137[ebp]
  0017f	25 c0 01 00 00	 and	 eax, 448		; 000001c0H
  00184	83 f8 40	 cmp	 eax, 64			; 00000040H
  00187	0f 84 d5 00 00
	00		 je	 $LN11@operator

; 787  : 			for (; 0 < _Pad; --_Pad)	// pad on left

  0018d	eb 12		 jmp	 SHORT $LN4@operator
$LN2@operator:
  0018f	8b 45 c8	 mov	 eax, DWORD PTR __Pad$[ebp]
  00192	83 e8 01	 sub	 eax, 1
  00195	8b 4d cc	 mov	 ecx, DWORD PTR __Pad$[ebp+4]
  00198	83 d9 00	 sbb	 ecx, 0
  0019b	89 45 c8	 mov	 DWORD PTR __Pad$[ebp], eax
  0019e	89 4d cc	 mov	 DWORD PTR __Pad$[ebp+4], ecx
$LN4@operator:
  001a1	83 7d cc 00	 cmp	 DWORD PTR __Pad$[ebp+4], 0
  001a5	0f 8c b7 00 00
	00		 jl	 $LN11@operator
  001ab	7f 0a		 jg	 SHORT $LN26@operator
  001ad	83 7d c8 00	 cmp	 DWORD PTR __Pad$[ebp], 0
  001b1	0f 86 ab 00 00
	00		 jbe	 $LN11@operator
$LN26@operator:

; 788  : 				if (_Traits::eq_int_type(_Traits::eof(),

  001b7	8b 45 08	 mov	 eax, DWORD PTR __Ostr$[ebp]
  001ba	8b 08		 mov	 ecx, DWORD PTR [eax]
  001bc	8b 55 08	 mov	 edx, DWORD PTR __Ostr$[ebp]
  001bf	03 51 04	 add	 edx, DWORD PTR [ecx+4]
  001c2	8b f4		 mov	 esi, esp
  001c4	8b ca		 mov	 ecx, edx
  001c6	ff 15 00 00 00
	00		 call	 DWORD PTR __imp_?fill@?$basic_ios@DU?$char_traits@D@std@@@std@@QBEDXZ
  001cc	3b f4		 cmp	 esi, esp
  001ce	e8 00 00 00 00	 call	 __RTC_CheckEsp
  001d3	88 85 b7 fe ff
	ff		 mov	 BYTE PTR tv283[ebp], al
  001d9	8b 45 08	 mov	 eax, DWORD PTR __Ostr$[ebp]
  001dc	8b 08		 mov	 ecx, DWORD PTR [eax]
  001de	8b 55 08	 mov	 edx, DWORD PTR __Ostr$[ebp]
  001e1	03 51 04	 add	 edx, DWORD PTR [ecx+4]
  001e4	8b f4		 mov	 esi, esp
  001e6	8b ca		 mov	 ecx, edx
  001e8	ff 15 00 00 00
	00		 call	 DWORD PTR __imp_?rdbuf@?$basic_ios@DU?$char_traits@D@std@@@std@@QBEPAV?$basic_streambuf@DU?$char_traits@D@std@@@2@XZ
  001ee	3b f4		 cmp	 esi, esp
  001f0	e8 00 00 00 00	 call	 __RTC_CheckEsp
  001f5	89 85 b0 fe ff
	ff		 mov	 DWORD PTR tv284[ebp], eax
  001fb	8b f4		 mov	 esi, esp
  001fd	0f b6 85 b7 fe
	ff ff		 movzx	 eax, BYTE PTR tv283[ebp]
  00204	50		 push	 eax
  00205	8b 8d b0 fe ff
	ff		 mov	 ecx, DWORD PTR tv284[ebp]
  0020b	ff 15 00 00 00
	00		 call	 DWORD PTR __imp_?sputc@?$basic_streambuf@DU?$char_traits@D@std@@@std@@QAEHD@Z
  00211	3b f4		 cmp	 esi, esp
  00213	e8 00 00 00 00	 call	 __RTC_CheckEsp
  00218	89 85 ac fe ff
	ff		 mov	 DWORD PTR tv285[ebp], eax
  0021e	8b 8d ac fe ff
	ff		 mov	 ecx, DWORD PTR tv285[ebp]
  00224	89 8d ec fe ff
	ff		 mov	 DWORD PTR $T6[ebp], ecx
  0022a	e8 00 00 00 00	 call	 ?eof@?$char_traits@D@std@@SAHXZ ; std::char_traits<char>::eof
  0022f	89 85 e0 fe ff
	ff		 mov	 DWORD PTR $T5[ebp], eax
  00235	8d 95 ec fe ff
	ff		 lea	 edx, DWORD PTR $T6[ebp]
  0023b	52		 push	 edx
  0023c	8d 85 e0 fe ff
	ff		 lea	 eax, DWORD PTR $T5[ebp]
  00242	50		 push	 eax
  00243	e8 00 00 00 00	 call	 ?eq_int_type@?$char_traits@D@std@@SA_NABH0@Z ; std::char_traits<char>::eq_int_type
  00248	83 c4 08	 add	 esp, 8
  0024b	0f b6 c8	 movzx	 ecx, al
  0024e	85 c9		 test	 ecx, ecx
  00250	74 0b		 je	 SHORT $LN12@operator

; 789  : 					_Ostr.rdbuf()->sputc(_Ostr.fill())))
; 790  : 					{	// insertion failed, quit
; 791  : 					_State |= ios_base::badbit;

  00252	8b 45 e8	 mov	 eax, DWORD PTR __State$[ebp]
  00255	83 c8 04	 or	 eax, 4
  00258	89 45 e8	 mov	 DWORD PTR __State$[ebp], eax

; 792  : 					break;

  0025b	eb 05		 jmp	 SHORT $LN11@operator
$LN12@operator:

; 793  : 					}
; 794  : 
; 795  : 		if (_State == ios_base::goodbit

  0025d	e9 2d ff ff ff	 jmp	 $LN2@operator
$LN11@operator:

; 796  : 			&& _Ostr.rdbuf()->sputn(_Val, _Count) != _Count)

  00262	83 7d e8 00	 cmp	 DWORD PTR __State$[ebp], 0
  00266	75 6e		 jne	 SHORT $LN13@operator
  00268	8b 45 08	 mov	 eax, DWORD PTR __Ostr$[ebp]
  0026b	8b 08		 mov	 ecx, DWORD PTR [eax]
  0026d	8b 55 08	 mov	 edx, DWORD PTR __Ostr$[ebp]
  00270	03 51 04	 add	 edx, DWORD PTR [ecx+4]
  00273	8b f4		 mov	 esi, esp
  00275	8b ca		 mov	 ecx, edx
  00277	ff 15 00 00 00
	00		 call	 DWORD PTR __imp_?rdbuf@?$basic_ios@DU?$char_traits@D@std@@@std@@QBEPAV?$basic_streambuf@DU?$char_traits@D@std@@@2@XZ
  0027d	3b f4		 cmp	 esi, esp
  0027f	e8 00 00 00 00	 call	 __RTC_CheckEsp
  00284	89 85 b4 fe ff
	ff		 mov	 DWORD PTR tv286[ebp], eax
  0028a	8b f4		 mov	 esi, esp
  0028c	8b 45 dc	 mov	 eax, DWORD PTR __Count$[ebp+4]
  0028f	50		 push	 eax
  00290	8b 4d d8	 mov	 ecx, DWORD PTR __Count$[ebp]
  00293	51		 push	 ecx
  00294	8b 55 0c	 mov	 edx, DWORD PTR __Val$[ebp]
  00297	52		 push	 edx
  00298	8b 8d b4 fe ff
	ff		 mov	 ecx, DWORD PTR tv286[ebp]
  0029e	ff 15 00 00 00
	00		 call	 DWORD PTR __imp_?sputn@?$basic_streambuf@DU?$char_traits@D@std@@@std@@QAE_JPBD_J@Z
  002a4	3b f4		 cmp	 esi, esp
  002a6	e8 00 00 00 00	 call	 __RTC_CheckEsp
  002ab	89 85 ac fe ff
	ff		 mov	 DWORD PTR tv287[ebp], eax
  002b1	89 95 b0 fe ff
	ff		 mov	 DWORD PTR tv287[ebp+4], edx
  002b7	8b 85 ac fe ff
	ff		 mov	 eax, DWORD PTR tv287[ebp]
  002bd	3b 45 d8	 cmp	 eax, DWORD PTR __Count$[ebp]
  002c0	75 0b		 jne	 SHORT $LN27@operator
  002c2	8b 8d b0 fe ff
	ff		 mov	 ecx, DWORD PTR tv287[ebp+4]
  002c8	3b 4d dc	 cmp	 ecx, DWORD PTR __Count$[ebp+4]
  002cb	74 09		 je	 SHORT $LN13@operator
$LN27@operator:

; 797  : 			_State |= ios_base::badbit;

  002cd	8b 45 e8	 mov	 eax, DWORD PTR __State$[ebp]
  002d0	83 c8 04	 or	 eax, 4
  002d3	89 45 e8	 mov	 DWORD PTR __State$[ebp], eax
$LN13@operator:

; 798  : 
; 799  : 		if (_State == ios_base::goodbit)

  002d6	83 7d e8 00	 cmp	 DWORD PTR __State$[ebp], 0
  002da	0f 85 d5 00 00
	00		 jne	 $LN14@operator

; 800  : 			for (; 0 < _Pad; --_Pad)	// pad on right

  002e0	eb 12		 jmp	 SHORT $LN7@operator
$LN5@operator:
  002e2	8b 45 c8	 mov	 eax, DWORD PTR __Pad$[ebp]
  002e5	83 e8 01	 sub	 eax, 1
  002e8	8b 4d cc	 mov	 ecx, DWORD PTR __Pad$[ebp+4]
  002eb	83 d9 00	 sbb	 ecx, 0
  002ee	89 45 c8	 mov	 DWORD PTR __Pad$[ebp], eax
  002f1	89 4d cc	 mov	 DWORD PTR __Pad$[ebp+4], ecx
$LN7@operator:
  002f4	83 7d cc 00	 cmp	 DWORD PTR __Pad$[ebp+4], 0
  002f8	0f 8c b7 00 00
	00		 jl	 $LN14@operator
  002fe	7f 0a		 jg	 SHORT $LN28@operator
  00300	83 7d c8 00	 cmp	 DWORD PTR __Pad$[ebp], 0
  00304	0f 86 ab 00 00
	00		 jbe	 $LN14@operator
$LN28@operator:

; 801  : 				if (_Traits::eq_int_type(_Traits::eof(),

  0030a	8b 45 08	 mov	 eax, DWORD PTR __Ostr$[ebp]
  0030d	8b 08		 mov	 ecx, DWORD PTR [eax]
  0030f	8b 55 08	 mov	 edx, DWORD PTR __Ostr$[ebp]
  00312	03 51 04	 add	 edx, DWORD PTR [ecx+4]
  00315	8b f4		 mov	 esi, esp
  00317	8b ca		 mov	 ecx, edx
  00319	ff 15 00 00 00
	00		 call	 DWORD PTR __imp_?fill@?$basic_ios@DU?$char_traits@D@std@@@std@@QBEDXZ
  0031f	3b f4		 cmp	 esi, esp
  00321	e8 00 00 00 00	 call	 __RTC_CheckEsp
  00326	88 85 b7 fe ff
	ff		 mov	 BYTE PTR tv288[ebp], al
  0032c	8b 45 08	 mov	 eax, DWORD PTR __Ostr$[ebp]
  0032f	8b 08		 mov	 ecx, DWORD PTR [eax]
  00331	8b 55 08	 mov	 edx, DWORD PTR __Ostr$[ebp]
  00334	03 51 04	 add	 edx, DWORD PTR [ecx+4]
  00337	8b f4		 mov	 esi, esp
  00339	8b ca		 mov	 ecx, edx
  0033b	ff 15 00 00 00
	00		 call	 DWORD PTR __imp_?rdbuf@?$basic_ios@DU?$char_traits@D@std@@@std@@QBEPAV?$basic_streambuf@DU?$char_traits@D@std@@@2@XZ
  00341	3b f4		 cmp	 esi, esp
  00343	e8 00 00 00 00	 call	 __RTC_CheckEsp
  00348	89 85 b0 fe ff
	ff		 mov	 DWORD PTR tv289[ebp], eax
  0034e	8b f4		 mov	 esi, esp
  00350	0f b6 85 b7 fe
	ff ff		 movzx	 eax, BYTE PTR tv288[ebp]
  00357	50		 push	 eax
  00358	8b 8d b0 fe ff
	ff		 mov	 ecx, DWORD PTR tv289[ebp]
  0035e	ff 15 00 00 00
	00		 call	 DWORD PTR __imp_?sputc@?$basic_streambuf@DU?$char_traits@D@std@@@std@@QAEHD@Z
  00364	3b f4		 cmp	 esi, esp
  00366	e8 00 00 00 00	 call	 __RTC_CheckEsp
  0036b	89 85 ac fe ff
	ff		 mov	 DWORD PTR tv290[ebp], eax
  00371	8b 8d ac fe ff
	ff		 mov	 ecx, DWORD PTR tv290[ebp]
  00377	89 8d d4 fe ff
	ff		 mov	 DWORD PTR $T4[ebp], ecx
  0037d	e8 00 00 00 00	 call	 ?eof@?$char_traits@D@std@@SAHXZ ; std::char_traits<char>::eof
  00382	89 85 c8 fe ff
	ff		 mov	 DWORD PTR $T3[ebp], eax
  00388	8d 95 d4 fe ff
	ff		 lea	 edx, DWORD PTR $T4[ebp]
  0038e	52		 push	 edx
  0038f	8d 85 c8 fe ff
	ff		 lea	 eax, DWORD PTR $T3[ebp]
  00395	50		 push	 eax
  00396	e8 00 00 00 00	 call	 ?eq_int_type@?$char_traits@D@std@@SA_NABH0@Z ; std::char_traits<char>::eq_int_type
  0039b	83 c4 08	 add	 esp, 8
  0039e	0f b6 c8	 movzx	 ecx, al
  003a1	85 c9		 test	 ecx, ecx
  003a3	74 0b		 je	 SHORT $LN15@operator

; 802  : 					_Ostr.rdbuf()->sputc(_Ostr.fill())))
; 803  : 					{	// insertion failed, quit
; 804  : 					_State |= ios_base::badbit;

  003a5	8b 45 e8	 mov	 eax, DWORD PTR __State$[ebp]
  003a8	83 c8 04	 or	 eax, 4
  003ab	89 45 e8	 mov	 DWORD PTR __State$[ebp], eax

; 805  : 					break;

  003ae	eb 05		 jmp	 SHORT $LN14@operator
$LN15@operator:

; 806  : 					}

  003b0	e9 2d ff ff ff	 jmp	 $LN5@operator
$LN14@operator:

; 807  : 		_Ostr.width(0);

  003b5	8b f4		 mov	 esi, esp
  003b7	6a 00		 push	 0
  003b9	6a 00		 push	 0
  003bb	8b 45 08	 mov	 eax, DWORD PTR __Ostr$[ebp]
  003be	8b 08		 mov	 ecx, DWORD PTR [eax]
  003c0	8b 55 08	 mov	 edx, DWORD PTR __Ostr$[ebp]
  003c3	03 51 04	 add	 edx, DWORD PTR [ecx+4]
  003c6	8b ca		 mov	 ecx, edx
  003c8	ff 15 00 00 00
	00		 call	 DWORD PTR __imp_?width@ios_base@std@@QAE_J_J@Z
  003ce	3b f4		 cmp	 esi, esp
  003d0	e8 00 00 00 00	 call	 __RTC_CheckEsp
  003d5	eb 26		 jmp	 SHORT $LN19@operator
__catch$??$?6U?$char_traits@D@std@@@std@@YAAAV?$basic_ostream@DU?$char_traits@D@std@@@0@AAV10@PBD@Z$0:

; 808  : 		_CATCH_IO_(_Ostr)

  003d7	8b f4		 mov	 esi, esp
  003d9	6a 01		 push	 1
  003db	6a 04		 push	 4
  003dd	8b 45 08	 mov	 eax, DWORD PTR __Ostr$[ebp]
  003e0	8b 08		 mov	 ecx, DWORD PTR [eax]
  003e2	8b 55 08	 mov	 edx, DWORD PTR __Ostr$[ebp]
  003e5	03 51 04	 add	 edx, DWORD PTR [ecx+4]
  003e8	8b ca		 mov	 ecx, edx
  003ea	ff 15 00 00 00
	00		 call	 DWORD PTR __imp_?setstate@?$basic_ios@DU?$char_traits@D@std@@@std@@QAEXH_N@Z
  003f0	3b f4		 cmp	 esi, esp
  003f2	e8 00 00 00 00	 call	 __RTC_CheckEsp
  003f7	b8 00 00 00 00	 mov	 eax, $LN23@operator
  003fc	c3		 ret	 0
$LN19@operator:
  003fd	c7 45 fc 00 00
	00 00		 mov	 DWORD PTR __$EHRec$[ebp+12], 0
  00404	eb 07		 jmp	 SHORT $LN9@operator
$LN23@operator:
  00406	c7 45 fc 00 00
	00 00		 mov	 DWORD PTR __$EHRec$[ebp+12], 0
$LN9@operator:

; 809  : 		}
; 810  : 
; 811  : 	_Ostr.setstate(_State);

  0040d	8b f4		 mov	 esi, esp
  0040f	6a 00		 push	 0
  00411	8b 45 e8	 mov	 eax, DWORD PTR __State$[ebp]
  00414	50		 push	 eax
  00415	8b 4d 08	 mov	 ecx, DWORD PTR __Ostr$[ebp]
  00418	8b 11		 mov	 edx, DWORD PTR [ecx]
  0041a	8b 4d 08	 mov	 ecx, DWORD PTR __Ostr$[ebp]
  0041d	03 4a 04	 add	 ecx, DWORD PTR [edx+4]
  00420	ff 15 00 00 00
	00		 call	 DWORD PTR __imp_?setstate@?$basic_ios@DU?$char_traits@D@std@@@std@@QAEXH_N@Z
  00426	3b f4		 cmp	 esi, esp
  00428	e8 00 00 00 00	 call	 __RTC_CheckEsp

; 812  : 	return (_Ostr);

  0042d	8b 45 08	 mov	 eax, DWORD PTR __Ostr$[ebp]
  00430	89 85 bc fe ff
	ff		 mov	 DWORD PTR $T2[ebp], eax
  00436	c7 45 fc ff ff
	ff ff		 mov	 DWORD PTR __$EHRec$[ebp+12], -1
  0043d	8d 4d b8	 lea	 ecx, DWORD PTR __Ok$[ebp]
  00440	e8 00 00 00 00	 call	 ??1sentry@?$basic_ostream@DU?$char_traits@D@std@@@std@@QAE@XZ ; std::basic_ostream<char,std::char_traits<char> >::sentry::~sentry
  00445	8b 85 bc fe ff
	ff		 mov	 eax, DWORD PTR $T2[ebp]

; 813  : 	}

  0044b	52		 push	 edx
  0044c	8b cd		 mov	 ecx, ebp
  0044e	50		 push	 eax
  0044f	8d 15 00 00 00
	00		 lea	 edx, DWORD PTR $LN32@operator
  00455	e8 00 00 00 00	 call	 @_RTC_CheckStackVars@8
  0045a	58		 pop	 eax
  0045b	5a		 pop	 edx
  0045c	8b 4d f4	 mov	 ecx, DWORD PTR __$EHRec$[ebp+4]
  0045f	64 89 0d 00 00
	00 00		 mov	 DWORD PTR fs:0, ecx
  00466	59		 pop	 ecx
  00467	5f		 pop	 edi
  00468	5e		 pop	 esi
  00469	5b		 pop	 ebx
  0046a	81 c4 60 01 00
	00		 add	 esp, 352		; 00000160H
  00470	3b ec		 cmp	 ebp, esp
  00472	e8 00 00 00 00	 call	 __RTC_CheckEsp
  00477	8b e5		 mov	 esp, ebp
  00479	5d		 pop	 ebp
  0047a	c3		 ret	 0
  0047b	90		 npad	 1
$LN32@operator:
  0047c	01 00 00 00	 DD	 1
  00480	00 00 00 00	 DD	 $LN31@operator
$LN31@operator:
  00484	b8 ff ff ff	 DD	 -72			; ffffffb8H
  00488	08 00 00 00	 DD	 8
  0048c	00 00 00 00	 DD	 $LN29@operator
$LN29@operator:
  00490	5f		 DB	 95			; 0000005fH
  00491	4f		 DB	 79			; 0000004fH
  00492	6b		 DB	 107			; 0000006bH
  00493	00		 DB	 0
_TEXT	ENDS
;	COMDAT text$x
text$x	SEGMENT
__unwindfunclet$??$?6U?$char_traits@D@std@@@std@@YAAAV?$basic_ostream@DU?$char_traits@D@std@@@0@AAV10@PBD@Z$2:
  00000	8d 4d b8	 lea	 ecx, DWORD PTR __Ok$[ebp]
  00003	e9 00 00 00 00	 jmp	 ??1sentry@?$basic_ostream@DU?$char_traits@D@std@@@std@@QAE@XZ ; std::basic_ostream<char,std::char_traits<char> >::sentry::~sentry
__ehhandler$??$?6U?$char_traits@D@std@@@std@@YAAAV?$basic_ostream@DU?$char_traits@D@std@@@0@AAV10@PBD@Z:
  00008	8b 54 24 08	 mov	 edx, DWORD PTR [esp+8]
  0000c	8d 42 0c	 lea	 eax, DWORD PTR [edx+12]
  0000f	8b 8a 9c fe ff
	ff		 mov	 ecx, DWORD PTR [edx-356]
  00015	33 c8		 xor	 ecx, eax
  00017	e8 00 00 00 00	 call	 @__security_check_cookie@4
  0001c	b8 00 00 00 00	 mov	 eax, OFFSET __ehfuncinfo$??$?6U?$char_traits@D@std@@@std@@YAAAV?$basic_ostream@DU?$char_traits@D@std@@@0@AAV10@PBD@Z
  00021	e9 00 00 00 00	 jmp	 ___CxxFrameHandler3
text$x	ENDS
??$?6U?$char_traits@D@std@@@std@@YAAAV?$basic_ostream@DU?$char_traits@D@std@@@0@AAV10@PBD@Z ENDP ; std::operator<<<std::char_traits<char> >
; Function compile flags: /Odtp /RTCsu /ZI
; File c:\users\barronry\desktop\cs_third_year\third_year\cs3021 computer architecture ii\labs\tutorial 1\t1test\t1test\t1test.cpp
;	COMDAT ?check@@YAXPADHH@Z
_TEXT	SEGMENT
_s$ = 8							; size = 4
_v$ = 12						; size = 4
_expected$ = 16						; size = 4
?check@@YAXPADHH@Z PROC					; check, COMDAT

; 61   : void check(char *s, int v, int expected) {

  00000	55		 push	 ebp
  00001	8b ec		 mov	 ebp, esp
  00003	81 ec c0 00 00
	00		 sub	 esp, 192		; 000000c0H
  00009	53		 push	 ebx
  0000a	56		 push	 esi
  0000b	57		 push	 edi
  0000c	8d bd 40 ff ff
	ff		 lea	 edi, DWORD PTR [ebp-192]
  00012	b9 30 00 00 00	 mov	 ecx, 48			; 00000030H
  00017	b8 cc cc cc cc	 mov	 eax, -858993460		; ccccccccH
  0001c	f3 ab		 rep stosd

; 62   : 	cout << s << " = " << v;

  0001e	8b f4		 mov	 esi, esp
  00020	8b 45 0c	 mov	 eax, DWORD PTR _v$[ebp]
  00023	50		 push	 eax
  00024	68 00 00 00 00	 push	 OFFSET ??_C@_03MHLONNLM@?5?$DN?5?$AA@
  00029	8b 4d 08	 mov	 ecx, DWORD PTR _s$[ebp]
  0002c	51		 push	 ecx
  0002d	8b 15 00 00 00
	00		 mov	 edx, DWORD PTR __imp_?cout@std@@3V?$basic_ostream@DU?$char_traits@D@std@@@1@A
  00033	52		 push	 edx
  00034	e8 00 00 00 00	 call	 ??$?6U?$char_traits@D@std@@@std@@YAAAV?$basic_ostream@DU?$char_traits@D@std@@@0@AAV10@PBD@Z ; std::operator<<<std::char_traits<char> >
  00039	83 c4 08	 add	 esp, 8
  0003c	50		 push	 eax
  0003d	e8 00 00 00 00	 call	 ??$?6U?$char_traits@D@std@@@std@@YAAAV?$basic_ostream@DU?$char_traits@D@std@@@0@AAV10@PBD@Z ; std::operator<<<std::char_traits<char> >
  00042	83 c4 08	 add	 esp, 8
  00045	8b c8		 mov	 ecx, eax
  00047	ff 15 00 00 00
	00		 call	 DWORD PTR __imp_??6?$basic_ostream@DU?$char_traits@D@std@@@std@@QAEAAV01@H@Z
  0004d	3b f4		 cmp	 esi, esp
  0004f	e8 00 00 00 00	 call	 __RTC_CheckEsp

; 63   : 	if (v == expected) {

  00054	8b 45 0c	 mov	 eax, DWORD PTR _v$[ebp]
  00057	3b 45 10	 cmp	 eax, DWORD PTR _expected$[ebp]
  0005a	75 15		 jne	 SHORT $LN2@check

; 64   : 		cout << " OK";

  0005c	68 00 00 00 00	 push	 OFFSET ??_C@_03BGMCNDOO@?5OK?$AA@
  00061	a1 00 00 00 00	 mov	 eax, DWORD PTR __imp_?cout@std@@3V?$basic_ostream@DU?$char_traits@D@std@@@1@A
  00066	50		 push	 eax
  00067	e8 00 00 00 00	 call	 ??$?6U?$char_traits@D@std@@@std@@YAAAV?$basic_ostream@DU?$char_traits@D@std@@@0@AAV10@PBD@Z ; std::operator<<<std::char_traits<char> >
  0006c	83 c4 08	 add	 esp, 8

; 65   : 	}
; 66   : 	else {

  0006f	eb 29		 jmp	 SHORT $LN3@check
$LN2@check:

; 67   : 		cout << " ERROR: should be " << expected;

  00071	8b f4		 mov	 esi, esp
  00073	8b 45 10	 mov	 eax, DWORD PTR _expected$[ebp]
  00076	50		 push	 eax
  00077	68 00 00 00 00	 push	 OFFSET ??_C@_0BD@GHEIMAKE@?5ERROR?3?5should?5be?5?$AA@
  0007c	8b 0d 00 00 00
	00		 mov	 ecx, DWORD PTR __imp_?cout@std@@3V?$basic_ostream@DU?$char_traits@D@std@@@1@A
  00082	51		 push	 ecx
  00083	e8 00 00 00 00	 call	 ??$?6U?$char_traits@D@std@@@std@@YAAAV?$basic_ostream@DU?$char_traits@D@std@@@0@AAV10@PBD@Z ; std::operator<<<std::char_traits<char> >
  00088	83 c4 08	 add	 esp, 8
  0008b	8b c8		 mov	 ecx, eax
  0008d	ff 15 00 00 00
	00		 call	 DWORD PTR __imp_??6?$basic_ostream@DU?$char_traits@D@std@@@std@@QAEAAV01@H@Z
  00093	3b f4		 cmp	 esi, esp
  00095	e8 00 00 00 00	 call	 __RTC_CheckEsp
$LN3@check:

; 68   : 	}
; 69   : 	cout << endl;

  0009a	8b f4		 mov	 esi, esp
  0009c	68 00 00 00 00	 push	 OFFSET ??$endl@DU?$char_traits@D@std@@@std@@YAAAV?$basic_ostream@DU?$char_traits@D@std@@@0@AAV10@@Z ; std::endl<char,std::char_traits<char> >
  000a1	8b 0d 00 00 00
	00		 mov	 ecx, DWORD PTR __imp_?cout@std@@3V?$basic_ostream@DU?$char_traits@D@std@@@1@A
  000a7	ff 15 00 00 00
	00		 call	 DWORD PTR __imp_??6?$basic_ostream@DU?$char_traits@D@std@@@std@@QAEAAV01@P6AAAV01@AAV01@@Z@Z
  000ad	3b f4		 cmp	 esi, esp
  000af	e8 00 00 00 00	 call	 __RTC_CheckEsp

; 70   : }

  000b4	5f		 pop	 edi
  000b5	5e		 pop	 esi
  000b6	5b		 pop	 ebx
  000b7	81 c4 c0 00 00
	00		 add	 esp, 192		; 000000c0H
  000bd	3b ec		 cmp	 ebp, esp
  000bf	e8 00 00 00 00	 call	 __RTC_CheckEsp
  000c4	8b e5		 mov	 esp, ebp
  000c6	5d		 pop	 ebp
  000c7	c3		 ret	 0
?check@@YAXPADHH@Z ENDP					; check
_TEXT	ENDS
; Function compile flags: /Odtp /RTCsu /ZI
; File c:\users\barronry\desktop\cs_third_year\third_year\cs3021 computer architecture ii\labs\tutorial 1\t1test\t1test\t1test.cpp
;	COMDAT ?fib_IA32@@YAHH@Z
_TEXT	SEGMENT
_n$ = 8							; size = 4
?fib_IA32@@YAHH@Z PROC					; fib_IA32, COMDAT

; 40   : int fib_IA32(int n) {

  00000	55		 push	 ebp
  00001	8b ec		 mov	 ebp, esp
  00003	81 ec c0 00 00
	00		 sub	 esp, 192		; 000000c0H
  00009	53		 push	 ebx
  0000a	56		 push	 esi
  0000b	57		 push	 edi
  0000c	8d bd 40 ff ff
	ff		 lea	 edi, DWORD PTR [ebp-192]
  00012	b9 30 00 00 00	 mov	 ecx, 48			; 00000030H
  00017	b8 cc cc cc cc	 mov	 eax, -858993460		; ccccccccH
  0001c	f3 ab		 rep stosd

; 41   : 	_asm {      mov eax, n          }   // mov n into eax

  0001e	8b 45 08	 mov	 eax, DWORD PTR _n$[ebp]

; 42   : 	_asm {      cmp eax, 1          }   // if (n <= 0)

  00021	83 f8 01	 cmp	 eax, 1

; 43   : 	_asm {      jle L3              }   // return n

  00024	7e 19		 jle	 SHORT $L3$3

; 44   : 	_asm {      xor ecx, ecx        }   // fi = 0

  00026	33 c9		 xor	 ecx, ecx

; 45   : 	_asm {      mov edx, 1          }   // fj = 1

  00028	ba 01 00 00 00	 mov	 edx, 1
$L1$4:

; 46   : 	_asm {L1:   cmp eax, 1          }   // while (n > 1)

  0002d	83 f8 01	 cmp	 eax, 1

; 47   : 	_asm {      jle L2              }   //

  00030	7e 0b		 jle	 SHORT $L2$5

; 48   : 	_asm {      mov ebx, ecx        }   // ebx = fi

  00032	8b d9		 mov	 ebx, ecx

; 49   : 	_asm {      add ebx, edx        }   // ebx = fi + fj

  00034	03 da		 add	 ebx, edx

; 50   : 	_asm {      mov ecx, edx        }   // fi = fj

  00036	8b ca		 mov	 ecx, edx

; 51   : 	_asm {      mov edx, ebx        }   // fj = ebx

  00038	8b d3		 mov	 edx, ebx

; 52   : 	_asm {      dec eax             }   // n--

  0003a	48		 dec	 eax

; 53   : 	_asm {      jmp L1              }   //

  0003b	eb f0		 jmp	 SHORT $L1$4
$L2$5:

; 54   : 	_asm {L2:   mov eax, edx        }   // eax = fj

  0003d	8b c2		 mov	 eax, edx
$L3$3:

; 55   : 	_asm {L3:                       }   //
; 56   : }

  0003f	5f		 pop	 edi
  00040	5e		 pop	 esi
  00041	5b		 pop	 ebx
  00042	81 c4 c0 00 00
	00		 add	 esp, 192		; 000000c0H
  00048	3b ec		 cmp	 ebp, esp
  0004a	e8 00 00 00 00	 call	 __RTC_CheckEsp
  0004f	8b e5		 mov	 esp, ebp
  00051	5d		 pop	 ebp
  00052	c3		 ret	 0
?fib_IA32@@YAHH@Z ENDP					; fib_IA32
_TEXT	ENDS
; Function compile flags: /Odtp /RTCsu /ZI
; File c:\users\barronry\desktop\cs_third_year\third_year\cs3021 computer architecture ii\labs\tutorial 1\t1test\t1test\t1test.cpp
;	COMDAT ?fib@@YAHH@Z
_TEXT	SEGMENT
_t$ = -32						; size = 4
_fj$ = -20						; size = 4
_fi$ = -8						; size = 4
_n$ = 8							; size = 4
?fib@@YAHH@Z PROC					; fib, COMDAT

; 20   : int fib(int n) {

  00000	55		 push	 ebp
  00001	8b ec		 mov	 ebp, esp
  00003	81 ec e4 00 00
	00		 sub	 esp, 228		; 000000e4H
  00009	53		 push	 ebx
  0000a	56		 push	 esi
  0000b	57		 push	 edi
  0000c	8d bd 1c ff ff
	ff		 lea	 edi, DWORD PTR [ebp-228]
  00012	b9 39 00 00 00	 mov	 ecx, 57			; 00000039H
  00017	b8 cc cc cc cc	 mov	 eax, -858993460		; ccccccccH
  0001c	f3 ab		 rep stosd

; 21   : 	int fi, fj, t;
; 22   : 
; 23   : 	if (n <= 1)

  0001e	83 7d 08 01	 cmp	 DWORD PTR _n$[ebp], 1
  00022	7f 05		 jg	 SHORT $LN4@fib

; 24   : 		return n;

  00024	8b 45 08	 mov	 eax, DWORD PTR _n$[ebp]
  00027	eb 37		 jmp	 SHORT $LN1@fib
$LN4@fib:

; 25   : 
; 26   : 	fi = 0;

  00029	c7 45 f8 00 00
	00 00		 mov	 DWORD PTR _fi$[ebp], 0

; 27   : 	fj = 1;

  00030	c7 45 ec 01 00
	00 00		 mov	 DWORD PTR _fj$[ebp], 1
$LN2@fib:

; 28   : 	while (n > 1) {

  00037	83 7d 08 01	 cmp	 DWORD PTR _n$[ebp], 1
  0003b	7e 20		 jle	 SHORT $LN3@fib

; 29   : 		t = fj;

  0003d	8b 45 ec	 mov	 eax, DWORD PTR _fj$[ebp]
  00040	89 45 e0	 mov	 DWORD PTR _t$[ebp], eax

; 30   : 		fj = fi + fj;

  00043	8b 45 f8	 mov	 eax, DWORD PTR _fi$[ebp]
  00046	03 45 ec	 add	 eax, DWORD PTR _fj$[ebp]
  00049	89 45 ec	 mov	 DWORD PTR _fj$[ebp], eax

; 31   : 		fi = t;

  0004c	8b 45 e0	 mov	 eax, DWORD PTR _t$[ebp]
  0004f	89 45 f8	 mov	 DWORD PTR _fi$[ebp], eax

; 32   : 		n--;

  00052	8b 45 08	 mov	 eax, DWORD PTR _n$[ebp]
  00055	83 e8 01	 sub	 eax, 1
  00058	89 45 08	 mov	 DWORD PTR _n$[ebp], eax

; 33   : 	}

  0005b	eb da		 jmp	 SHORT $LN2@fib
$LN3@fib:

; 34   : 	return fj;

  0005d	8b 45 ec	 mov	 eax, DWORD PTR _fj$[ebp]
$LN1@fib:

; 35   : }

  00060	5f		 pop	 edi
  00061	5e		 pop	 esi
  00062	5b		 pop	 ebx
  00063	8b e5		 mov	 esp, ebp
  00065	5d		 pop	 ebp
  00066	c3		 ret	 0
?fib@@YAHH@Z ENDP					; fib
_TEXT	ENDS
; Function compile flags: /Odtp /RTCsu /ZI
; File c:\program files (x86)\microsoft visual studio\2017\enterprise\vc\tools\msvc\14.10.25017\include\iosfwd
;	COMDAT ?eof@?$char_traits@D@std@@SAHXZ
_TEXT	SEGMENT
?eof@?$char_traits@D@std@@SAHXZ PROC			; std::char_traits<char>::eof, COMDAT

; 551  : 		{	// return end-of-file metacharacter

  00000	55		 push	 ebp
  00001	8b ec		 mov	 ebp, esp
  00003	81 ec c0 00 00
	00		 sub	 esp, 192		; 000000c0H
  00009	53		 push	 ebx
  0000a	56		 push	 esi
  0000b	57		 push	 edi
  0000c	8d bd 40 ff ff
	ff		 lea	 edi, DWORD PTR [ebp-192]
  00012	b9 30 00 00 00	 mov	 ecx, 48			; 00000030H
  00017	b8 cc cc cc cc	 mov	 eax, -858993460		; ccccccccH
  0001c	f3 ab		 rep stosd

; 552  : 		return (EOF);

  0001e	83 c8 ff	 or	 eax, -1

; 553  : 		}

  00021	5f		 pop	 edi
  00022	5e		 pop	 esi
  00023	5b		 pop	 ebx
  00024	8b e5		 mov	 esp, ebp
  00026	5d		 pop	 ebp
  00027	c3		 ret	 0
?eof@?$char_traits@D@std@@SAHXZ ENDP			; std::char_traits<char>::eof
_TEXT	ENDS
; Function compile flags: /Odtp /RTCsu /ZI
; File c:\program files (x86)\microsoft visual studio\2017\enterprise\vc\tools\msvc\14.10.25017\include\iosfwd
;	COMDAT ?eq_int_type@?$char_traits@D@std@@SA_NABH0@Z
_TEXT	SEGMENT
tv65 = -196						; size = 4
__Left$ = 8						; size = 4
__Right$ = 12						; size = 4
?eq_int_type@?$char_traits@D@std@@SA_NABH0@Z PROC	; std::char_traits<char>::eq_int_type, COMDAT

; 541  : 		{	// test for metacharacter equality

  00000	55		 push	 ebp
  00001	8b ec		 mov	 ebp, esp
  00003	81 ec c4 00 00
	00		 sub	 esp, 196		; 000000c4H
  00009	53		 push	 ebx
  0000a	56		 push	 esi
  0000b	57		 push	 edi
  0000c	8d bd 3c ff ff
	ff		 lea	 edi, DWORD PTR [ebp-196]
  00012	b9 31 00 00 00	 mov	 ecx, 49			; 00000031H
  00017	b8 cc cc cc cc	 mov	 eax, -858993460		; ccccccccH
  0001c	f3 ab		 rep stosd

; 542  : 		return (_Left == _Right);

  0001e	8b 45 08	 mov	 eax, DWORD PTR __Left$[ebp]
  00021	8b 4d 0c	 mov	 ecx, DWORD PTR __Right$[ebp]
  00024	8b 10		 mov	 edx, DWORD PTR [eax]
  00026	3b 11		 cmp	 edx, DWORD PTR [ecx]
  00028	75 0c		 jne	 SHORT $LN3@eq_int_typ
  0002a	c7 85 3c ff ff
	ff 01 00 00 00	 mov	 DWORD PTR tv65[ebp], 1
  00034	eb 0a		 jmp	 SHORT $LN4@eq_int_typ
$LN3@eq_int_typ:
  00036	c7 85 3c ff ff
	ff 00 00 00 00	 mov	 DWORD PTR tv65[ebp], 0
$LN4@eq_int_typ:
  00040	8a 85 3c ff ff
	ff		 mov	 al, BYTE PTR tv65[ebp]

; 543  : 		}

  00046	5f		 pop	 edi
  00047	5e		 pop	 esi
  00048	5b		 pop	 ebx
  00049	8b e5		 mov	 esp, ebp
  0004b	5d		 pop	 ebp
  0004c	c3		 ret	 0
?eq_int_type@?$char_traits@D@std@@SA_NABH0@Z ENDP	; std::char_traits<char>::eq_int_type
_TEXT	ENDS
; Function compile flags: /Odtp /RTCsu /ZI
; File c:\program files (x86)\microsoft visual studio\2017\enterprise\vc\tools\msvc\14.10.25017\include\iosfwd
;	COMDAT ?length@?$char_traits@D@std@@SAIQBD@Z
_TEXT	SEGMENT
__First$ = 8						; size = 4
?length@?$char_traits@D@std@@SAIQBD@Z PROC		; std::char_traits<char>::length, COMDAT

; 479  : 		{	// find length of null-terminated string

  00000	55		 push	 ebp
  00001	8b ec		 mov	 ebp, esp
  00003	81 ec c0 00 00
	00		 sub	 esp, 192		; 000000c0H
  00009	53		 push	 ebx
  0000a	56		 push	 esi
  0000b	57		 push	 edi
  0000c	8d bd 40 ff ff
	ff		 lea	 edi, DWORD PTR [ebp-192]
  00012	b9 30 00 00 00	 mov	 ecx, 48			; 00000030H
  00017	b8 cc cc cc cc	 mov	 eax, -858993460		; ccccccccH
  0001c	f3 ab		 rep stosd

; 480  : 		return (_CSTD strlen(_First));

  0001e	8b 45 08	 mov	 eax, DWORD PTR __First$[ebp]
  00021	50		 push	 eax
  00022	e8 00 00 00 00	 call	 _strlen
  00027	83 c4 04	 add	 esp, 4

; 481  : 		}

  0002a	5f		 pop	 edi
  0002b	5e		 pop	 esi
  0002c	5b		 pop	 ebx
  0002d	81 c4 c0 00 00
	00		 add	 esp, 192		; 000000c0H
  00033	3b ec		 cmp	 ebp, esp
  00035	e8 00 00 00 00	 call	 __RTC_CheckEsp
  0003a	8b e5		 mov	 esp, ebp
  0003c	5d		 pop	 ebp
  0003d	c3		 ret	 0
?length@?$char_traits@D@std@@SAIQBD@Z ENDP		; std::char_traits<char>::length
_TEXT	ENDS
; Function compile flags: /Odtp /RTCsu /ZI
; File c:\users\barronry\desktop\cs_third_year\third_year\cs3021 computer architecture ii\labs\tutorial 1\t1test\t1test\t1test.cpp
;	COMDAT ?__empty_global_delete@@YAXPAXI@Z
_TEXT	SEGMENT
___formal$ = 8						; size = 4
___formal$ = 12						; size = 4
?__empty_global_delete@@YAXPAXI@Z PROC			; __empty_global_delete, COMDAT

; 138  : }

  00000	55		 push	 ebp
  00001	8b ec		 mov	 ebp, esp
  00003	81 ec c0 00 00
	00		 sub	 esp, 192		; 000000c0H
  00009	53		 push	 ebx
  0000a	56		 push	 esi
  0000b	57		 push	 edi
  0000c	8d bd 40 ff ff
	ff		 lea	 edi, DWORD PTR [ebp-192]
  00012	b9 30 00 00 00	 mov	 ecx, 48			; 00000030H
  00017	b8 cc cc cc cc	 mov	 eax, -858993460		; ccccccccH
  0001c	f3 ab		 rep stosd
  0001e	5f		 pop	 edi
  0001f	5e		 pop	 esi
  00020	5b		 pop	 ebx
  00021	8b e5		 mov	 esp, ebp
  00023	5d		 pop	 ebp
  00024	c3		 ret	 0
?__empty_global_delete@@YAXPAXI@Z ENDP			; __empty_global_delete
_TEXT	ENDS
; Function compile flags: /Odtp /RTCsu /ZI
; File c:\users\barronry\desktop\cs_third_year\third_year\cs3021 computer architecture ii\labs\tutorial 1\t1test\t1test\t1test.cpp
;	COMDAT ?__empty_global_delete@@YAXPAX@Z
_TEXT	SEGMENT
___formal$ = 8						; size = 4
?__empty_global_delete@@YAXPAX@Z PROC			; __empty_global_delete, COMDAT

; 138  : }

  00000	55		 push	 ebp
  00001	8b ec		 mov	 ebp, esp
  00003	81 ec c0 00 00
	00		 sub	 esp, 192		; 000000c0H
  00009	53		 push	 ebx
  0000a	56		 push	 esi
  0000b	57		 push	 edi
  0000c	8d bd 40 ff ff
	ff		 lea	 edi, DWORD PTR [ebp-192]
  00012	b9 30 00 00 00	 mov	 ecx, 48			; 00000030H
  00017	b8 cc cc cc cc	 mov	 eax, -858993460		; ccccccccH
  0001c	f3 ab		 rep stosd
  0001e	5f		 pop	 edi
  0001f	5e		 pop	 esi
  00020	5b		 pop	 ebx
  00021	8b e5		 mov	 esp, ebp
  00023	5d		 pop	 ebp
  00024	c3		 ret	 0
?__empty_global_delete@@YAXPAX@Z ENDP			; __empty_global_delete
_TEXT	ENDS
END
